08008000 A _stext
08008000 T _vectors
08008188 T __start
08008204 T stm32_clockconfig
08008344 T stm32_gpioinit
08008346 T stm32_gpiowrite
0800836c T stm32_configgpio
080084e0 T stm32_unconfiggpio
080084e6 T stm32_gpioread
08008514 T stm32_iocompensation
0800852c T arm_lowputc
0800853c T stm32_lowsetup
080085a4 t up_setusartint
080085cc t up_restoreusartint
080085e2 t up_disableusartint
0800860e t up_set_format
0800869a t up_receive
080086b4 t up_rxint
080086e2 t up_rxavailable
080086ee t up_txready
080086fa t up_txint
0800873e t up_send
08008756 t up_ioctl
080087f6 t up_detach
08008812 t up_attach
08008838 t up_interrupt
080088c2 t up_setup
08008978 t up_shutdown
080089f4 T stm32_serial_get_uart
08008a18 T arm_earlyserialinit
08008a40 T arm_serialinit
08008a98 T up_putc
08008acc T modifyreg32
08008ae8 T exception_common
08008b48 t stm32_reserved
08008b70 t stm32_dbgmonitor
08008b98 t stm32_pendsv
08008bc0 t stm32_usagefault
08008bf0 t stm32_busfault
08008c20 t stm32_nmi
08008c48 t stm32_irqinfo
08008cb0 T up_irqinitialize
08008d88 T up_disable_irq
08008dac T up_enable_irq
08008dd0 T arm_ack_irq
08008dd4 T arm_hardfault
08008ea8 T arm_memfault
08008eec T arm_svcall
08008f20 T arm_doirq
08008f44 T stm32_boardinitialize
08008f6c T board_late_initialize
08008f70 T stm32_bringup
08009000 T stm32_mx25l_initialize
0800905c T stm32_pcf8563_init
0800908c t selfrel_offset31
080090a0 t search_EIT_table
080090fc t __gnu_unwind_get_pr_addr
08009124 t get_eit_entry
080091c0 t restore_non_core_regs
08009218 t __gnu_unwind_24bit.constprop.0
0800921c t _Unwind_decode_typeinfo_ptr.constprop.0
08009228 t _Unwind_DebugHook
0800922c t unwind_phase2
08009268 t unwind_phase2_forced
08009334 T _Unwind_GetCFA
08009338 T __gnu_Unwind_RaiseException
080093a0 T __gnu_Unwind_ForcedUnwind
080093b0 T __gnu_Unwind_Resume
080093f4 T __gnu_Unwind_Resume_or_Rethrow
08009408 T _Unwind_Complete
0800940c T _Unwind_DeleteException
08009418 T _Unwind_VRS_Get
08009448 t _Unwind_GetGR
08009464 T _Unwind_VRS_Set
08009494 t _Unwind_SetGR
080094ac T __gnu_Unwind_Backtrace
08009530 t __gnu_unwind_pr_common
080097d8 T __aeabi_unwind_cpp_pr0
080097e0 W __aeabi_unwind_cpp_pr1
080097e8 W __aeabi_unwind_cpp_pr2
080097f0 T _Unwind_VRS_Pop
08009a74 T __restore_core_regs
08009a74 T restore_core_regs
08009a8c T __gnu_Unwind_Restore_VFP
08009a94 T __gnu_Unwind_Save_VFP
08009a9c T __gnu_Unwind_Restore_VFP_D
08009aa4 T __gnu_Unwind_Save_VFP_D
08009aac T __gnu_Unwind_Restore_VFP_D_16_to_31
08009ab4 T __gnu_Unwind_Save_VFP_D_16_to_31
08009abc T __gnu_Unwind_Restore_WMMXD
08009b00 T __gnu_Unwind_Save_WMMXD
08009b44 T __gnu_Unwind_Restore_WMMXC
08009b58 T __gnu_Unwind_Save_WMMXC
08009b6c T ___Unwind_RaiseException
08009b6c T _Unwind_RaiseException
08009b90 T ___Unwind_Resume
08009b90 T _Unwind_Resume
08009bb4 T ___Unwind_Resume_or_Rethrow
08009bb4 T _Unwind_Resume_or_Rethrow
08009bd8 T ___Unwind_ForcedUnwind
08009bd8 T _Unwind_ForcedUnwind
08009bfc T ___Unwind_Backtrace
08009bfc T _Unwind_Backtrace
08009c20 t next_unwind_byte
08009c58 t _Unwind_GetGR.constprop.0
08009c74 t unwind_UCB_from_context
08009c78 T __gnu_unwind_execute
08009f24 T __gnu_unwind_frame
08009f50 T _Unwind_GetRegionStart
08009f5c T _Unwind_GetLanguageSpecificData
08009f70 T _Unwind_GetDataRelBase
08009f76 T _Unwind_GetTextRelBase
08009f7c T clock_basetime
08009f9e W clock_initialize
08009fa2 T clock_synchronize
08009ff8 T clock_resynchronize
0800a0cc W clock_timer
0800a0dc T clock_systime_timespec
0800a11c T nx_start
0800a27c t nx_start_task
0800a2a4 T nx_bringup
0800a2dc T irq_attach
0800a31c T irq_dispatch
0800a358 T irq_unexpected_isr
0800a380 t nxthread_create
0800a3d2 T nxtask_create
0800a3e8 T task_create
0800a408 T kthread_create
0800a420 T nxtask_init
0800a4c4 T nxtask_uninit
0800a4e4 t nxthread_setup_scheduler
0800a59c T nxtask_setup_scheduler
0800a5a8 T pthread_setup_scheduler
0800a5b6 T nxtask_setup_arguments
0800a688 T nxtask_activate
0800a6a0 T nxtask_start
0800a6e4 T _exit
0800a6ea T exit
0800a70c t work_hpthread
0800a720 T work_start_highpri
0800a768 T setenv
0800a818 T unsetenv
0800a87c T group_allocate
0800a8ce T group_initialize
0800a8de T group_leave
0800a930 T group_setupidlefiles
0800a970 T group_setuptaskfiles
0800a9a0 W irq_initialize
0800a9c4 T pthread_release
0800a9f4 T pthread_mutex_inconsistent
0800aa30 T nxsched_release_tcb
0800aa84 T sched_lock
0800aaa0 T sched_unlock
0800ab04 T nxsem_destroy
0800ab1a T sem_destroy
0800ab34 T nxsig_procmask
0800ab94 T sigprocmask
0800abb0 T nxsig_unmask_pendingsignal
0800ac14 T nxsig_remove_pendingsignal
0800ac50 T nxsig_release_pendingsignal
0800ac90 T nxsig_lowest
0800acae T nxsig_cleanup
0800ace0 T nxsig_release
0800ad08 T nxsig_tcbdispatch
0800aec0 T nxsig_dispatch
0800aedc T nxsig_deliver
0800af86 T nxtask_exithook
0800b01e T nxtask_recover
0800b036 T wd_recover
0800b03c T work_process
0800b104 T env_dup
0800b160 T env_release
0800b174 T env_findvar
0800b1ac T env_removevar
0800b1ec T group_setupstreams
0800b21e T nxmq_recover
0800b23e T nxmq_wait_irq
0800b27a T pthread_sem_take
0800b29c T pthread_sem_give
0800b2b4 T nxsched_get_tcb
0800b2ec T nxsem_wait
0800b340 T nxsem_wait_uninterruptible
0800b350 T sem_wait
0800b36c T nxsem_timedwait
0800b374 T nxsem_timedwait_uninterruptible
0800b37c T sem_timedwait
0800b384 T nxsem_clockwait
0800b400 T nxsem_clockwait_uninterruptible
0800b418 T sem_clockwait
0800b434 T nxsem_timeout
0800b45c T nxsem_post
0800b4c4 T sem_post
0800b4e0 T nxsem_recover
0800b504 T nxsem_wait_irq
0800b530 W nxsig_initialize
0800b5e4 T nxsig_alloc_actionblock
0800b60c T nxsig_release_action
0800b618 T nxsig_action
0800b6b4 T sigaction
0800b6d4 T nxsig_pendingset
0800b700 T sigpending
0800b720 t nxsig_timeout
0800b73e T nxsig_timedwait
0800b834 T sigtimedwait
0800b850 T nxsig_find_action
0800b874 T nxsig_alloc_pendingsigaction
0800b8bc T nxsig_release_pendingsigaction
0800b8fc T nxsig_usleep
0800b928 T getpid
0800b944 T wd_start
0800b9ec T wd_timer
0800ba30 T wd_cancel
0800ba94 T clock_timespec_compare
0800bab0 T clock_abstime2ticks
0800bb0c T nxsem_trywait
0800bb48 T sem_trywait
0800bb64 T nxsig_nanosleep
0800bbec T clock_nanosleep
0800bc50 W wd_initialize
0800bc60 T clock_gettime
0800bcf0 T clock_time2ticks
0800bd24 T clock_ticks2time
0800bd40 T clock_timespec_subtract
0800bd7c t userled_supported
0800bd8c t userled_ledset
0800bd92 t userled_led
0800bd9a T userled_lower_initialize
0800bdbc t mx25l_lock
0800bdf4 t mx25l_unlock
0800bdfc t mx25l_writeenable
0800be2a t mx25l_waitwritecomplete
0800be7c t mx25l_read
0800bf42 t mx25l_bread
0800bf5a t mx25l_bwrite
0800c018 t mx25l_erase
0800c0b6 t mx25l_ioctl
0800c144 T mx25l_initialize_spi
0800c240 t uart_putc
0800c260 t uart_putxmitchar
0800c302 t uart_read
0800c42c t uart_open
0800c4b6 t uart_pollnotify
0800c506 t uart_poll
0800c5e8 t uart_tcdrain
0800c69c t uart_write
0800c7b4 T uart_register
0800c840 T uart_datareceived
0800c860 T uart_datasent
0800c880 t uart_ioctl
0800c9be T uart_connected
0800ca00 T uart_reset_sem
0800ca38 t uart_close
0800caac T uart_xmitchars
0800cb1a T uart_recvchars
0800cb80 T syslog_initialize
0800cb84 T syslog_console_channel
0800cbac t rtc_bin2bcd
0800cbc4 T pcf8563_rtc_initialize
0800cbd4 T up_rtc_getdatetime
0800cd0c T up_rtc_settime
0800ce18 t userled_ioctl
0800ceaa t userled_write
0800cedc t userled_close
0800cf42 t userled_open
0800cf7a T userled_register
0800cfe4 T syslog_channel
0800cff8 T syslog_channel_remove
0800d014 t syslog_dev_takesem
0800d040 T syslog_dev_initialize
0800d0a8 t syslog_dev_outputready
0800d108 T syslog_dev_write
0800d1cc T syslog_dev_putc
0800d22c T syslog_dev_flush
0800d230 T _assert
0800d23c T __errno
0800d246 T lib_stream_initialize
0800d284 T lib_stream_release
0800d2cc T lib_sem_initialize
0800d2e6 T lib_take_semaphore
0800d314 T lib_give_semaphore
0800d330 T sq_addlast
0800d344 T sq_addfirst
0800d350 T sq_addafter
0800d36c T sq_rem
0800d398 T sq_remfirst
0800d3ac T sq_remafter
0800d3ce T dq_addfirst
0800d3e4 T dq_rem
0800d400 T nxtask_startup
0800d45c T nxsem_init
0800d472 T sem_init
0800d492 T nxsem_get_value
0800d4a6 T sem_getvalue
0800d4c0 T nxsem_set_protocol
0800d4d4 T sem_setprotocol
0800d4ee T nxsig_addset
0800d508 T sigaddset
0800d520 T nxsig_delset
0800d53a T sigdelset
0800d552 T sigemptyset
0800d55a T nxsig_ismember
0800d56c T sigismember
0800d584 T sprintf
0800d5b4 t memoutstream_putc
0800d5ce T lib_memoutstream
0800d5ec T lib_noflush
0800d5f0 T lib_vsprintf
0800ddbc T __ultoa_invert
0800de18 T __dtoa_engine
0800e01c T lib_flushall
0800e058 T lib_fflush
0800e0e8 T abort
0800e0f0 T memset
0800e100 T strcpy
0800e110 T strdup
0800e132 T strlen
0800e142 T strnlen
0800e15a T strncpy
0800e17e T memcpy
0800e194 T vsyslog
0800e1b4 T syslog
0800e1d0 T setlogmask
0800e1e0 T cfsetspeed
0800e224 T cfgetspeed
0800e228 t detzcode
0800e242 t getzname
0800e25c t getnum
0800e28e t getoffset
0800e304 t getrule
0800e390 t transtime
0800e4ac t increment_overflow
0800e4d0 t increment_overflow32
0800e4f4 t increment_overflow_time
0800e512 t normalize_overflow
0800e534 t tz_semtake
0800e54e t settzname
0800e640 t leaps_thru_end_of
0800e668 t tmcomp
0800e6a6 t timesub.isra.0
0800ea40 t typesequiv.isra.0
0800eaa6 t tzload
0800f014 t tzparse
0800f400 t gmtload
0800f424 t gmtsub
0800f46c t localsub
0800f550 t time2sub.constprop.0
0800f884 t time2.constprop.0
0800f8a2 T tzset
0800f9a0 T localtime
0800f9b8 T localtime_r
0800f9be T gmtime
0800f9c8 T gmtime_r
0800f9ce T mktime
0800fae4 T tls_get_info
0800fafc T access
0800fb28 T stream_semtake
0800fb38 T stream_semgive
0800fb3c T strcat
0800fb5c T strchr
0800fb74 T strcmp
0800fb8c T umm_initialize
0800fbc0 T free
0800fbcc T malloc
0800fbd8 T realloc
0800fbe8 T zalloc
0800fbf4 T iob_initialize
0800fc60 T mm_addregion
0800fcda T mm_initialize
0800fd2c T mm_seminitialize
0800fd46 T mm_trysemaphore
0800fd84 T mm_takesemaphore
0800fdba T mm_givesemaphore
0800fdd6 T mm_addfreechunk
0800fe0c T mm_size2ndx
0800fe26 t mm_add_delaylist.isra.0
0800fe40 T mm_free
0800fef8 T mm_mallinfo
0800ff70 T mm_malloc
0801001c T mm_realloc
080101c4 T mm_zalloc
080101dc T mm_shrinkchunk
08010240 T up_allocate_heap
08010258 T arm_addregion
08010264 t spi_modifycr1
08010274 t spi_setfrequency
0801030e t spi_send
08010334 t spi_exchange
08010380 t spi_lock
0801038c t spi_setmode
080103fc t spi_setbits
08010440 T stm32_spibus_initialize
080104c4 t stm32_timerisr
080104ce T up_timer_initialize
08010508 t stm32_i2c_modifyreg
0801051c t stm32_i2c_sendstart
08010528 t stm32_i2c_sendstop
08010534 t stm32_i2c_setclock.part.0
080105a0 t stm32_i2c_isr
080108f4 t stm32_i2c_transfer
08010a68 T stm32_i2cbus_initialize
08010b4c T stm32_i2cbus_uninitialize
08010be8 T up_idle
08010bec t up_stackdump
08010c3c T up_assert
08010dcc T up_block_task
08010e38 T arm_copyfullstate
08010e50 T up_create_stack
08010ea0 T up_exit
08010ec4 T up_initialize
08010ef0 T up_initial_state
08010f3c T up_interrupt_context
08010f4c T modifyreg16
08010f6c T up_release_pending
08010fb4 T up_release_stack
08010fd4 T up_schedule_sigaction
08011054 T arm_sigdeliver
080110a4 T up_stack_frame
080110cc T up_unblock_task
0801111c T up_use_stack
0801115c T arm_saveusercontext
08011170 T arm_fullcontextrestore
0801117a T arm_switchcontext
08011188 t stm32_req_complete
080111c4 t stm32_req_dispatch
080111f6 t stm32_epout_configure
08011284 t stm32_epin_configure
08011310 t stm32_ep_configure
08011322 t stm32_ep_clrstall
08011356 t stm32_ep_alloc
080113c0 t stm32_getframe
080113ce t stm32_selfpowered
080113e2 t stm32_pullup
0801140c t stm32_ep_freereq
08011418 t stm32_ep_allocreq
08011434 t stm32_wakeup
08011474 t stm32_epout_request
08011502 t stm32_ep_free
0801152a t stm32_rxfifo_discard.constprop.0
08011548 t stm32_rxfifo_read.constprop.0
08011580 t stm32_ep0out_ctrlsetup.constprop.0
0801159c t stm32_rxfifo_flush.isra.0
080115bc t stm32_txfifo_flush.isra.0
080115dc t stm32_req_cancel
0801160a t stm32_ep_cancel
08011630 t stm32_ep_disable
08011744 t stm32_epin_transfer
080117d6 t stm32_ep0in_setupresponse
080117f0 t stm32_ep0in_transmitzlp
080117f6 t stm32_epin_request
080118ce t stm32_ep_submit
08011954 t stm32_usbreset.constprop.0
08011a3c t stm32_epout_setstall
08011a8e t stm32_ep_setstall
08011ab6 t stm32_ep_stall
08011ad4 t stm32_ep0out_setup
08011df8 t stm32_usbinterrupt
080122c0 T usbdev_register
08012314 T usbdev_unregister
08012368 T arm_usbuninitialize
080123f8 T arm_usbinitialize
08012620 t stm32_freesegment
08012654 t stm32_phyread
080126a4 t stm32_phywrite
080126f0 t stm32_txtimeout_expiry
08012714 t stm32_txavail
08012734 t stm32_poll_expiry
08012750 t stm32_dopoll
08012794 t stm32_txavail_work
080127b0 t stm32_poll_work
08012810 t stm32_ioctl
08012846 t stm32_interrupt
08012884 t stm32_ethreset.constprop.0
080128d4 t stm32_ifup
08012b78 t stm32_ifdown
08012bac t stm32_txtimeout_work
08012bd2 t stm32_transmit.isra.0
08012c64 t stm32_txpoll
08012cb6 t stm32_interrupt_work
08012ec4 T arm_netinitialize
08012f9c t stm32_rng_read
08012ff8 t stm32_rng_interrupt
0801306c T devrandom_register
080130ec T devurandom_register
08013104 T up_udelay
0801317a T up_mdelay
080131a8 T phigw_main
080131f0 t _ZN8nlohmann6detail10serializerINS_10basic_jsonINSt3__13mapENS3_6vectorENS3_12basic_stringIcNS3_11char_traitsIcEENS3_9allocatorIcEEEEbxydS9_NS_14adl_serializerENS5_IhNS9_IhEEEEEEE12count_digitsEy.isra.0
08013236 T _ZN3Log5printENSt3__112basic_stringIcNS0_11char_traitsIcEENS0_9allocatorIcEEEE
0801345c W _ZN8nlohmann6detail21output_string_adapterIcNSt3__112basic_stringIcNS2_11char_traitsIcEENS2_9allocatorIcEEEEED1Ev
0801345c W _ZN8nlohmann6detail21output_string_adapterIcNSt3__112basic_stringIcNS2_11char_traitsIcEENS2_9allocatorIcEEEEED2Ev
0801345e W _ZN8nlohmann6detail21output_string_adapterIcNSt3__112basic_stringIcNS2_11char_traitsIcEENS2_9allocatorIcEEEEED0Ev
0801346c W _ZNSt3__120__shared_ptr_emplaceIN8nlohmann6detail21output_string_adapterIcNS_12basic_stringIcNS_11char_traitsIcEENS_9allocatorIcEEEEEENS7_ISA_EEE21__on_zero_shared_weakEv
08013472 W _ZN8nlohmann6detail21output_string_adapterIcNSt3__112basic_stringIcNS2_11char_traitsIcEENS2_9allocatorIcEEEEE16write_charactersEPKcj
08013478 W _ZN8nlohmann6detail21output_string_adapterIcNSt3__112basic_stringIcNS2_11char_traitsIcEENS2_9allocatorIcEEEEE15write_characterEc
08013480 W _ZNSt3__120__shared_ptr_emplaceIN8nlohmann6detail21output_string_adapterIcNS_12basic_stringIcNS_11char_traitsIcEENS_9allocatorIcEEEEEENS7_ISA_EEED1Ev
08013480 W _ZNSt3__120__shared_ptr_emplaceIN8nlohmann6detail21output_string_adapterIcNS_12basic_stringIcNS_11char_traitsIcEENS_9allocatorIcEEEEEENS7_ISA_EEED2Ev
08013494 W _ZNSt3__120__shared_ptr_emplaceIN8nlohmann6detail21output_string_adapterIcNS_12basic_stringIcNS_11char_traitsIcEENS_9allocatorIcEEEEEENS7_ISA_EEED0Ev
080134a8 W _ZNSt3__120__shared_ptr_emplaceIN8nlohmann6detail21output_string_adapterIcNS_12basic_stringIcNS_11char_traitsIcEENS_9allocatorIcEEEEEENS7_ISA_EEE16__on_zero_sharedEv
080134aa W _ZN8nlohmann6detail9dtoa_impl5diyfp3mulERKS2_S4_
08013510 W _ZN8nlohmann6detail9dtoa_impl36get_cached_power_for_binary_exponentEi
080135b4 W _ZN8nlohmann6detail9dtoa_impl12grisu2_roundEPciyyyy
08013670 W _ZN8nlohmann6detail9dtoa_impl16grisu2_digit_genEPcRiS3_NS1_5diyfpES4_S4_
08013910 W _ZN8nlohmann6detail9dtoa_impl15append_exponentEPci
08013994 W _ZNK8nlohmann10basic_jsonINSt3__13mapENS1_6vectorENS1_12basic_stringIcNS1_11char_traitsIcEENS1_9allocatorIcEEEEbxydS7_NS_14adl_serializerENS3_IhNS7_IhEEEEE16assert_invariantEb
080139dc W _ZN8nlohmann10basic_jsonINSt3__13mapENS1_6vectorENS1_12basic_stringIcNS1_11char_traitsIcEENS1_9allocatorIcEEEEbxydS7_NS_14adl_serializerENS3_IhNS7_IhEEEEEC1EOSD_
080139dc W _ZN8nlohmann10basic_jsonINSt3__13mapENS1_6vectorENS1_12basic_stringIcNS1_11char_traitsIcEENS1_9allocatorIcEEEEbxydS7_NS_14adl_serializerENS3_IhNS7_IhEEEEEC2EOSD_
08013a10 W _ZN8nlohmann10basic_jsonINSt3__13mapENS1_6vectorENS1_12basic_stringIcNS1_11char_traitsIcEENS1_9allocatorIcEEEEbxydS7_NS_14adl_serializerENS3_IhNS7_IhEEEEE10json_valueC1ENS_6detail7value_tE
08013a10 W _ZN8nlohmann10basic_jsonINSt3__13mapENS1_6vectorENS1_12basic_stringIcNS1_11char_traitsIcEENS1_9allocatorIcEEEEbxydS7_NS_14adl_serializerENS3_IhNS7_IhEEEEE10json_valueC2ENS_6detail7value_tE
08013ab0 W _ZN8nlohmann10basic_jsonINSt3__13mapENS1_6vectorENS1_12basic_stringIcNS1_11char_traitsIcEENS1_9allocatorIcEEEEbxydS7_NS_14adl_serializerENS3_IhNS7_IhEEEEEC1EDn
08013ab0 W _ZN8nlohmann10basic_jsonINSt3__13mapENS1_6vectorENS1_12basic_stringIcNS1_11char_traitsIcEENS1_9allocatorIcEEEEbxydS7_NS_14adl_serializerENS3_IhNS7_IhEEEEEC2EDn
08013ad2 W _ZNSt3__110shared_ptrIN8nlohmann6detail23output_adapter_protocolIcEEED1Ev
08013ad2 W _ZNSt3__110shared_ptrIN8nlohmann6detail23output_adapter_protocolIcEEED2Ev
08013b08 W _ZN8nlohmann6detail10serializerINS_10basic_jsonINSt3__13mapENS3_6vectorENS3_12basic_stringIcNS3_11char_traitsIcEENS3_9allocatorIcEEEEbxydS9_NS_14adl_serializerENS5_IhNS9_IhEEEEEEE12dump_escapedERKSB_b
08013e30 W _ZN8nlohmann6detail10serializerINS_10basic_jsonINSt3__13mapENS3_6vectorENS3_12basic_stringIcNS3_11char_traitsIcEENS3_9allocatorIcEEEEbxydS9_NS_14adl_serializerENS5_IhNS9_IhEEEEEEE12dump_integerIhLi0EEEvT_
08013eec W _ZN8nlohmann6detail10serializerINS_10basic_jsonINSt3__13mapENS3_6vectorENS3_12basic_stringIcNS3_11char_traitsIcEENS3_9allocatorIcEEEEbxydS9_NS_14adl_serializerENS5_IhNS9_IhEEEEEEE12dump_integerIxLi0EEEvT_
08013fc4 W _ZN8nlohmann6detail10serializerINS_10basic_jsonINSt3__13mapENS3_6vectorENS3_12basic_stringIcNS3_11char_traitsIcEENS3_9allocatorIcEEEEbxydS9_NS_14adl_serializerENS5_IhNS9_IhEEEEEEE12dump_integerIyLi0EEEvT_
08014084 W _ZNSt3__114__split_bufferIN8nlohmann10basic_jsonINS_3mapENS_6vectorENS_12basic_stringIcNS_11char_traitsIcEENS_9allocatorIcEEEEbxydS8_NS1_14adl_serializerENS4_IhNS8_IhEEEEEERNS8_ISE_EEEC1EjjSG_
08014084 W _ZNSt3__114__split_bufferIN8nlohmann10basic_jsonINS_3mapENS_6vectorENS_12basic_stringIcNS_11char_traitsIcEENS_9allocatorIcEEEEbxydS8_NS1_14adl_serializerENS4_IhNS8_IhEEEEEERNS8_ISE_EEEC2EjjSG_
080140ba W _ZNSt3__16vectorIN8nlohmann10basic_jsonINS_3mapES0_NS_12basic_stringIcNS_11char_traitsIcEENS_9allocatorIcEEEEbxydS7_NS1_14adl_serializerENS0_IhNS7_IhEEEEEENS7_ISD_EEE26__swap_out_circular_bufferERNS_14__split_bufferISD_RSE_EE
080140f8 W _ZN8nlohmann10basic_jsonINSt3__13mapENS1_6vectorENS1_12basic_stringIcNS1_11char_traitsIcEENS1_9allocatorIcEEEEbxydS7_NS_14adl_serializerENS3_IhNS7_IhEEEEE10json_value7destroyENS_6detail7value_tE
080143f8 W _ZN8nlohmann10basic_jsonINSt3__13mapENS1_6vectorENS1_12basic_stringIcNS1_11char_traitsIcEENS1_9allocatorIcEEEEbxydS7_NS_14adl_serializerENS3_IhNS7_IhEEEEED1Ev
080143f8 W _ZN8nlohmann10basic_jsonINSt3__13mapENS1_6vectorENS1_12basic_stringIcNS1_11char_traitsIcEENS1_9allocatorIcEEEEbxydS7_NS_14adl_serializerENS3_IhNS7_IhEEEEED2Ev
08014410 W _ZNSt3__114__split_bufferIN8nlohmann10basic_jsonINS_3mapENS_6vectorENS_12basic_stringIcNS_11char_traitsIcEENS_9allocatorIcEEEEbxydS8_NS1_14adl_serializerENS4_IhNS8_IhEEEEEERNS8_ISE_EEED1Ev
08014410 W _ZNSt3__114__split_bufferIN8nlohmann10basic_jsonINS_3mapENS_6vectorENS_12basic_stringIcNS_11char_traitsIcEENS_9allocatorIcEEEEbxydS8_NS1_14adl_serializerENS4_IhNS8_IhEEEEEERNS8_ISE_EEED2Ev
08014436 W _ZNSt3__16vectorIN8nlohmann10basic_jsonINS_3mapES0_NS_12basic_stringIcNS_11char_traitsIcEENS_9allocatorIcEEEEbxydS7_NS1_14adl_serializerENS0_IhNS7_IhEEEEEENS7_ISD_EEE7reserveEj
0801446a t _ZNSt3__16__treeINS_12__value_typeINS_12basic_stringIcNS_11char_traitsIcEENS_9allocatorIcEEEEN8nlohmann10basic_jsonINS_3mapENS_6vectorES7_bxydS5_NS8_14adl_serializerENSB_IhNS5_IhEEEEEEEENS_19__map_value_compareIS7_SG_NS_4lessIvEELb1EEENS5_ISG_EEE7destroyEPNS_11__tree_nodeISG_PvEE.isra.0
0801449c W _ZNSt3__113__vector_baseIN8nlohmann10basic_jsonINS_3mapENS_6vectorENS_12basic_stringIcNS_11char_traitsIcEENS_9allocatorIcEEEEbxydS8_NS1_14adl_serializerENS4_IhNS8_IhEEEEEENS8_ISE_EEED1Ev
0801449c W _ZNSt3__113__vector_baseIN8nlohmann10basic_jsonINS_3mapENS_6vectorENS_12basic_stringIcNS_11char_traitsIcEENS_9allocatorIcEEEEbxydS8_NS1_14adl_serializerENS4_IhNS8_IhEEEEEENS8_ISE_EEED2Ev
080144c4 W _ZNSt3__118__tree_left_rotateIPNS_16__tree_node_baseIPvEEEEvT_
080144e2 W _ZNSt3__119__tree_right_rotateIPNS_16__tree_node_baseIPvEEEEvT_
08014500 W _ZNSt3__127__tree_balance_after_insertIPNS_16__tree_node_baseIPvEEEEvT_S5_
08014590 W _ZN8nlohmann6detail9dtoa_impl18compute_boundariesIdEENS1_10boundariesET_
0801473c W _ZN8nlohmann6detail8to_charsIdEEPcS2_PKcT_
080149a4 W _ZN8nlohmann6detail10serializerINS_10basic_jsonINSt3__13mapENS3_6vectorENS3_12basic_stringIcNS3_11char_traitsIcEENS3_9allocatorIcEEEEbxydS9_NS_14adl_serializerENS5_IhNS9_IhEEEEEEE4dumpERKSF_bbjj
08015020 W _ZNK8nlohmann10basic_jsonINSt3__13mapENS1_6vectorENS1_12basic_stringIcNS1_11char_traitsIcEENS1_9allocatorIcEEEEbxydS7_NS_14adl_serializerENS3_IhNS7_IhEEEEE4dumpEicbNS_6detail15error_handler_tE
0801510c W _ZNKSt3__112basic_stringIcNS_11char_traitsIcEENS_9allocatorIcEEE7compareINS_17basic_string_viewIcS2_EEEENS_9_MetaBaseIXsrNS_33__can_be_converted_to_string_viewIcS2_T_EE5valueEE13_EnableIfImplIiEERKSB_
08015148 T netdev_register
08015214 T net_initialize
0801523a T arp_arpin
080152e4 T arp_out
08015360 T arp_format
080153c8 t arp_match
080153f2 T arp_update
0801544c T arp_hdr_update
08015452 T arp_lookup
08015490 T arp_find
080154c8 T arp_delete
080154d8 T pkt_initialize
08015508 T pkt_alloc
0801553c T pkt_free
0801556c T pkt_active
08015598 T pkt_nextconn
080155a8 T pkt_input
080155d4 T pkt_callback
080155e8 T local_initialize
080155f8 T local_alloc
08015620 T local_free
0801565c t local_cs_name
08015698 t local_sc_name
080156d4 t local_fifo_exists
080156fc t local_rx_open
0801571e t local_tx_open
08015740 t local_create_fifo
08015762 T local_create_fifos
0801578a T local_create_halfduplex
080157b0 T local_release_fifos
080157f4 T local_release_halfduplex
080157f8 T local_open_client_rx
08015824 T local_open_client_tx
08015850 T local_open_server_rx
0801587c T local_open_server_tx
080158a8 T local_open_receiver
080158e8 T local_open_sender
08015924 T local_listen
0801596c t tcp_ipv4_listener
0801599c t tcp_selectport.constprop.0
08015a14 T tcp_initialize
08015a44 T tcp_free
08015ab0 T tcp_alloc
08015b44 T tcp_active
08015b88 T tcp_nextconn
08015b9c T tcp_alloc_accept
08015c34 T tcp_bind
08015c6c T tcp_connect
08015cf8 T tcp_setsequence
08015d08 T tcp_getsequence
08015d0e T tcp_addsequence
08015d18 T tcp_initsequence
08015d24 T tcp_nextsequence
08015d34 T tcp_local_ipv4_device
08015d58 T tcp_remote_ipv4_device
08015d80 T tcp_findlistener
08015da4 T tcp_listen_initialize
08015dbc T tcp_unlisten
08015df0 T tcp_islistener
08015dfe T tcp_listen
08015e3c T tcp_accept_connection
08015e74 T tcp_datahandler
08015ec6 T tcp_callback
08015f1c T tcp_backlogdestroy
08015f5c T tcp_backlogcreate
08015fb2 T tcp_backlogadd
08015fe0 T tcp_backlogavailable
08015ff0 T tcp_backlogremove
0801601a T tcp_backlogdelete
08016060 t udp_find_conn.constprop.0
0801608c t udp_select_port.isra.0
08016100 T udp_initialize
08016138 T udp_alloc
08016170 T udp_free
080161b0 T udp_active
08016200 T udp_nextconn
08016214 T udp_bind
08016254 T udp_connect
08016280 T devif_initialize
08016284 T devif_poll
080162fc T devif_timer
08016338 t devif_callback_free.part.0
0801639c T devif_callback_init
080163c4 T devif_callback_alloc
08016418 T devif_conn_callback_free
0801643a T devif_dev_callback_free
08016462 T devif_conn_event
080164c4 T devif_dev_event
0801651c T devif_loopback
08016570 T ipv4_input
0801662a T ipv4_upperlayer_chksum
0801667e T ipv4_chksum
080166a4 T net_lockinitialize
080166b4 T net_lock
080166ec T net_trylock
08016724 T net_unlock
0801674c T net_breaklock
08016794 T net_restorelock
080167bc t _net_timedwait
08016864 T net_timedwait
0801686a T net_lockedwait
08016872 T net_timedwait_uninterruptible
08016878 T net_lockedwait_uninterruptible
08016880 T net_ioballoc
080168c4 T icmp_poll
080168e4 T icmp_sock_initialize
0801691c T icmp_alloc
0801695c T icmp_free
08016998 T icmp_active
080169b0 T icmp_nextconn
080169c0 T icmp_findconn
080169e8 T netdev_findby_lipv4addr
08016a18 T netdev_findby_ripv4addr
08016a3c T netdev_foreach
08016a64 T netdev_default
08016a90 T netdev_verify
08016ab8 T icmp_input
08016bd6 T pkt_poll
08016bfc T tcp_poll
08016c34 T tcp_timer
08016e34 t tcp_sendcomplete
08016e98 t tcp_sendcommon
08016efc T tcp_send
08016f14 T tcp_reset
08016fb4 T tcp_synack
08016fe0 T tcp_ipv4_input
080174f4 T tcp_rexmit
08017524 T tcp_appsend
08017588 t tcp_shutdown_monitor
080175b6 t tcp_close_connection
080175d6 t tcp_disconnect_event
080175fe T tcp_start_monitor
0801764c T tcp_stop_monitor
0801764e T tcp_close_monitor
08017684 T tcp_lost_connection
080176a0 T tcp_ipv4_select
080176ae T tcp_get_recvwindow
080176ee T udp_poll
08017720 T udp_send
080177ac T udp_ipv4_input
08017818 T udp_callback
080178f6 T udp_ipv4_select
08017904 T chksum
08017958 T net_chksum
0801796c T net_incr32
080179b6 T tcp_ipv4_chksum
080179bc T net_timeo
080179dc T fs_initialize
080179e0 t files_extend
08017a32 T files_initlist
08017a3a T files_releaselist
08017a74 T files_allocate
08017b72 T files_duplist
08017be0 T fs_getfilep
08017c40 T nx_dup2
08017cc4 T dup2
08017cde T nx_close
08017d2c T close
08017d48 T inode_initialize
08017d6c T inode_semtake
08017da0 T inode_semgive
08017dc4 t inode_alloc
08017e00 T inode_root_reserve
08017e18 T inode_reserve
08017eb4 T inode_nextname
08017ed0 t _inode_search
08017fd4 t _inode_linktarget
0801802e T inode_search
08018094 T file_close
080180c0 T file_dup2
08018146 T file_vioctl
08018162 t nx_vioctl
080181e4 T file_ioctl
080181fe T nx_ioctl
08018218 T ioctl
08018244 T inode_checkflags
0801826c t file_vopen.constprop.0
08018346 t nx_vopen
08018378 T file_open
08018392 T nx_open
080183ac T open
080183d8 T file_read
080183fe T nx_read
0801841c T read
08018436 T inode_stat
08018548 t stat_recursive
080185ac T nx_stat
080185ce T stat
080185ea T lstat
08018606 T nx_unlink
080186d2 T unlink
080186ee T file_write
0801870e T nx_write
08018734 T write
0801874e T fs_fdopen
08018828 T register_driver
08018862 T register_mtddriver
0801889c T block_proxy
0801894c t mount_findfs
08018968 T nx_mount
08018a94 T mount
08018ab4 t procfs_enum
08018ac6 t procfs_read
08018ad0 t procfs_write
08018ae0 t procfs_ioctl
08018ae6 t procfs_dup
08018af0 t procfs_rewinddir
08018b06 t procfs_unbind
08018b0a t procfs_statfs
08018b30 t procfs_fstat
08018b58 t procfs_open
08018bb4 t procfs_readdir
08018d34 t procfs_closedir
08018d46 t procfs_close
08018d56 t procfs_opendir
08018e18 t procfs_stat
08018e98 t procfs_initialize.isra.0
08018ec0 t procfs_bind
08018eca T procfs_register
08018f20 t proc_rewinddir
08018f28 t proc_findnode
08018f74 t proc_stat
08019000 t proc_readdir
08019058 t proc_closedir
0801906a t proc_close
0801907a t proc_opendir
08019138 t proc_open
080191cc t proc_dup
080191f0 t proc_groupenv_callback
08019270 t proc_read
08019840 t uptime_stat
0801986c t uptime_dup
08019890 t uptime_read
080198f4 t uptime_close
08019904 t uptime_open
08019940 t meminfo_stat
0801996c t meminfo_dup
08019990 t meminfo_read
08019a28 t meminfo_close
08019a38 t meminfo_open
08019a74 T procfs_register_meminfo
08019a84 t iobinfo_stat
08019ab0 t iobinfo_dup
08019ad4 t iobinfo_read
08019bdc t iobinfo_close
08019bec t iobinfo_open
08019c28 t version_stat
08019c54 t version_dup
08019c78 t version_read
08019cd8 t version_close
08019ce8 t version_open
08019d24 t littlefs_ioctl
08019d50 t littlefs_read_block
08019d9a t littlefs_write_block
08019de4 t littlefs_erase_block
08019e1c t littlefs_sync_block
08019e58 t littlefs_stat
08019ebe t littlefs_dup
08019ee4 t littlefs_rename
08019f0e t littlefs_mkdir
08019f34 t littlefs_unlink
08019f5a t littlefs_rmdir
08019f5c t littlefs_statfs
08019fb8 t littlefs_unbind
0801a004 t littlefs_bind
0801a18c t littlefs_rewinddir
0801a1c8 t littlefs_readdir
0801a22a t littlefs_closedir
0801a254 t littlefs_opendir
0801a2b2 t littlefs_truncate
0801a2de t littlefs_fstat
0801a330 t littlefs_sync
0801a358 t littlefs_seek
0801a392 t littlefs_write
0801a3ec t littlefs_read
0801a446 t littlefs_close
0801a482 t littlefs_open
0801a540 t lfs_pair_isnull
0801a554 t lfs_pair_cmp
0801a576 t lfs_tag_dsize
0801a58a t lfs_gstate_xor
0801a5a6 t lfs_gstate_hasmovehere
0801a5c2 t lfs_alloc_lookahead
0801a5f8 t lfs_dir_traverse_filter
0801a660 t lfs_dir_commit_size
0801a674 t lfs_fs_size_count
0801a67e t lfs_deinit
0801a6aa t lfs_bd_read
0801a834 t lfs_fs_parent_match
0801a870 t lfs_dir_fetchmatch
0801ac54 t lfs_fs_parent
0801acd0 t lfs_dir_fetch
0801acea t lfs_fs_pred
0801ad3c t lfs_dir_traverse
0801aed8 t lfs_dir_getslice
0801affc t lfs_dir_get
0801b014 t lfs_dir_getgstate
0801b048 t lfs_dir_find
0801b194 t lfs_dir_getinfo
0801b224 t lfs_fs_preporphans
0801b258 t lfs_dir_getread.constprop.0
0801b318 t lfs_bd_cmp.constprop.0
0801b378 t lfs_dir_find_match
0801b3b2 t lfs_ctz_index.isra.0
0801b3ec t lfs_ctz_find.constprop.0
0801b482 t lfs_ctz_traverse
0801b506 t lfs_bd_erase.isra.0
0801b528 t lfs_cache_zero.isra.0
0801b53e t lfs_init
0801b69c t lfs_bd_flush
0801b734 t lfs_bd_prog
0801b7f8 t lfs_dir_commitprog
0801b836 t lfs_dir_commitattr
0801b8e6 t lfs_dir_commit_commit
0801b8f0 t lfs_dir_commitcrc
0801babc T lfs_dir_open
0801bb40 T lfs_dir_close
0801bb5a T lfs_dir_read
0801bbec T lfs_dir_tell
0801bbf0 T lfs_dir_rewind
0801bc06 T lfs_dir_seek
0801bc8c T lfs_file_tell
0801bca8 T lfs_file_size
0801bcd0 T lfs_stat
0801bcfa T lfs_getattr
0801bd6c T lfs_unmount
0801bd70 T lfs_mount
0801bf10 T lfs_fs_traverseraw
0801c058 t lfs_alloc
0801c158 t lfs_dir_alloc
0801c1be t lfs_file_relocate
0801c2bc T lfs_file_write
0801c5bc t lfs_file_flush
0801c6a8 T lfs_file_read
0801c7b4 T lfs_file_seek
0801c7fc T lfs_file_rewind
0801c80c T lfs_file_truncate
0801c8d4 T lfs_fs_traverse
0801c8da T lfs_fs_size
0801c8f8 t lfs_dir_compact
0801cd78 t lfs_dir_commit
0801d0a8 t lfs_dir_drop
0801d0e4 t lfs_fs_forceconsistency
0801d208 T lfs_mkdir
0801d358 T lfs_file_sync
0801d3fc T lfs_file_close
0801d44c T lfs_file_opencfg
0801d684 T lfs_file_open
0801d698 T lfs_remove
0801d770 T lfs_rename
0801d9b4 t lfs_commitattr
0801da0a T lfs_setattr
0801da20 T lfs_removeattr
0801da34 T lfs_format
0801dafc t lfs_dir_split
0801db78 T lfs_crc
0801dbb0 T inode_addref
0801dbd0 T inode_find
0801dbf6 T inode_release
0801dc32 T inode_unlink
0801dc7a T inode_remove
0801dca4 t file_vfcntl
0801dd12 t nx_vfcntl
0801dd56 T file_fcntl
0801dd70 T nx_fcntl
0801dd8a T fcntl
0801ddb6 T find_blockdriver
0801de2c T find_mtddriver
0801de84 t sock_file_poll
0801de8a t sock_file_ioctl
0801de90 t sock_file_write
0801de98 t sock_file_read
0801deac t sock_file_close
0801dec0 t sock_file_open
0801deee T sockfd_allocate
0801df2c T sockfd_socket
0801df52 T socket
0801df9c t mount_stat
0801dfb4 t mount_dup
0801dfd8 t mount_read
0801e034 t mount_sprintf
0801e078 t usage_entry
0801e19c t blocks_entry
0801e1f0 t mount_entry
0801e21c t mount_close
0801e22c t mount_open
0801e28c T fs_gettype
0801e2bc T procfs_memcpy
0801e2ea T inode_free
0801e31a T file_dup
0801e356 T nx_dup
0801e370 T dup
0801e38c t mountpoint_filter
0801e3fc T foreach_mountpoint
0801e414 t foreach_inodelevel
0801e488 T foreach_inode
0801e4d0 T binfmt_initialize
0801e4d4 W stm32_spidev_initialize
0801e4e0 T stm32_spi1select
0801e4f8 T stm32_spi1status
0801e504 T board_userled_initialize
0801e53c T board_userled
0801e550 T board_userled_all
0801e5b0 W stm32_usbinitialize
0801e5d0 T stm32_usbsuspend
0801e828 T __aeabi_drsub
0801e830 T __aeabi_dsub
0801e830 T __subdf3
0801e834 T __adddf3
0801e834 T __aeabi_dadd
0801eaac T __aeabi_ui2d
0801eaac T __floatunsidf
0801eacc T __aeabi_i2d
0801eacc T __floatsidf
0801eaf0 T __aeabi_f2d
0801eaf0 T __extendsfdf2
0801eb34 T __aeabi_ul2d
0801eb34 T __floatundidf
0801eb44 T __aeabi_l2d
0801eb44 T __floatdidf
0801eba0 T __aeabi_dmul
0801eba0 T __muldf3
0801edf4 T __aeabi_ddiv
0801edf4 T __divdf3
0801efc4 T __gedf2
0801efc4 T __gtdf2
0801efcc T __ledf2
0801efcc T __ltdf2
0801efd4 T __cmpdf2
0801efd4 T __eqdf2
0801efd4 T __nedf2
0801f050 T __aeabi_cdrcmple
0801f060 T __aeabi_cdcmpeq
0801f060 T __aeabi_cdcmple
0801f070 T __aeabi_dcmpeq
0801f084 T __aeabi_dcmplt
0801f098 T __aeabi_dcmple
0801f0ac T __aeabi_dcmpge
0801f0c0 T __aeabi_dcmpgt
0801f0d4 T __aeabi_ldivmod
0801f174 T __aeabi_uldivmod
0801f1a4 T __popcountsi2
0801f1cc T __aeabi_d2ulz
0801f1cc T __fixunsdfdi
0801f208 T __udivmoddi4
0801f4d8 W __aeabi_idiv0
0801f4d8 W __aeabi_ldiv0
0801f4dc T __aeabi_d2uiz
0801f4dc T __fixunsdfsi
0801f51c T _ZdlPvj
0801f520 T _Znwj
0801f55c T _ZNKSt9bad_alloc4whatEv
0801f564 T _ZNSt9bad_allocD1Ev
0801f564 T _ZNSt9bad_allocD2Ev
0801f578 T _ZNSt9bad_allocD0Ev
0801f594 T _ZdlPv
0801f598 t _ZN12_GLOBAL__N_14pool4freeEPv.constprop.0
0801f620 t _ZN12_GLOBAL__N_14pool8allocateEj.constprop.0
0801f67c T _ZN9__gnu_cxx9__freeresEv
0801f694 T __cxa_allocate_exception
0801f6c4 T __cxa_free_exception
0801f6e4 T __cxa_allocate_dependent_exception
0801f70c T __cxa_free_dependent_exception
0801f72c t _GLOBAL__sub_I__ZN9__gnu_cxx9__freeresEv
0801f754 T _ZNSt9exceptionD1Ev
0801f754 T _ZNSt9exceptionD2Ev
0801f758 T _ZNSt13bad_exceptionD1Ev
0801f758 T _ZNSt13bad_exceptionD2Ev
0801f75c T _ZGTtNKSt9exception4whatEv
0801f75c T _ZNKSt9exception4whatEv
0801f764 T _ZGTtNKSt13bad_exception4whatEv
0801f764 T _ZNKSt13bad_exception4whatEv
0801f76c T _ZNSt9exceptionD0Ev
0801f77c T _ZNSt13bad_exceptionD0Ev
0801f78c T _ZN10__cxxabiv115__forced_unwindD1Ev
0801f78c T _ZN10__cxxabiv115__forced_unwindD2Ev
0801f790 T _ZN10__cxxabiv115__forced_unwindD0Ev
0801f7a0 T _ZN10__cxxabiv119__foreign_exceptionD1Ev
0801f7a0 T _ZN10__cxxabiv119__foreign_exceptionD2Ev
0801f7a4 T _ZN10__cxxabiv119__foreign_exceptionD0Ev
0801f7b4 T _ZGTtNKSt9exceptionD1Ev
0801f7b8 T _ZGTtNKSt13bad_exceptionD1Ev
0801f7bc T _ZN10__cxxabiv111__terminateEPFvvE
0801f7e4 T _ZSt9terminatev
0801f7f8 T _ZN10__cxxabiv112__unexpectedEPFvvE
0801f800 T _ZSt10unexpectedv
0801f814 T _ZSt13set_terminatePFvvE
0801f83c T _ZSt13get_terminatev
0801f84c T _ZSt14set_unexpectedPFvvE
0801f874 T _ZSt14get_unexpectedv
0801f884 t _ZL23__gxx_exception_cleanup19_Unwind_Reason_CodeP21_Unwind_Control_Block
0801f8c8 T __cxa_init_primary_exception
0801f920 T __cxa_throw
0801f954 T __cxa_rethrow
0801f9c4 T _ZSt15set_new_handlerPFvvE
0801f9e4 T _ZSt15get_new_handlerv
0801f9f4 T __cxa_pure_virtual
0801fa08 T __cxa_deleted_virtual
0801fa1c T _ZN10__cxxabiv120__si_class_type_infoD1Ev
0801fa1c T _ZN10__cxxabiv120__si_class_type_infoD2Ev
0801fa30 T _ZN10__cxxabiv120__si_class_type_infoD0Ev
0801fa4c T _ZNK10__cxxabiv120__si_class_type_info20__do_find_public_srcEiPKvPKNS_17__class_type_infoES2_
0801fa88 T _ZNK10__cxxabiv120__si_class_type_info12__do_dyncastEiNS_17__class_type_info10__sub_kindEPKS1_PKvS4_S6_RNS1_16__dyncast_resultE
0801fb0c T _ZNK10__cxxabiv120__si_class_type_info11__do_upcastEPKNS_17__class_type_infoEPKvRNS1_15__upcast_resultE
0801fb38 T _ZNSt9type_infoD1Ev
0801fb38 T _ZNSt9type_infoD2Ev
0801fb3c T _ZNKSt9type_info14__is_pointer_pEv
0801fb3c T _ZNKSt9type_info15__is_function_pEv
0801fb40 T _ZNKSt9type_info11__do_upcastEPKN10__cxxabiv117__class_type_infoEPPv
0801fb44 T _ZNSt9type_infoD0Ev
0801fb54 T _ZNKSt9type_info10__do_catchEPKS_PPvj
0801fb80 T _ZNKSt9type_infoeqERKS_
0801fbac T _ZN9__gnu_cxx27__verbose_terminate_handlerEv
0801fcb8 t d_make_comp
0801fd4c t d_number
0801fdc0 t d_call_offset
0801fe08 t d_ref_qualifier
0801fe3c t d_count_templates_scopes
0801ff10 t d_discriminator
0801ff58 t d_index_template_argument.part.0
0801ff7c t d_growable_string_callback_adapter
0801fff4 t next_is_type_qual.isra.0
08020024 t d_append_char
08020068 t d_lookup_template_argument
080200a0 t d_find_pack
08020130 t d_append_string
08020198 t d_template_param
080201f8 t d_append_num
08020270 t d_source_name
08020350 t d_substitution
080204e4 t d_print_java_identifier
080205cc t d_type
08020e4c t d_operator_name
08020f54 t d_parmlist
08020fd0 t d_bare_function_type
08021018 t d_function_type
08021084 t d_unqualified_name
080213b8 t d_name
08021798 t d_encoding.part.0
08021894 t d_special_name
08021d94 t d_expr_primary
08021eb4 t d_expression_1
080222fc t d_exprlist
08022370 t d_cv_qualifiers
080224c4 t d_template_arg
0802251c t d_template_args_1
08022580 t d_print_comp_inner
080246b0 t d_print_comp
0802470c t d_print_mod
08024d40 t d_print_function_type
08024f24 t d_print_mod_list
0802516c t d_print_array_type
08025334 t d_print_conversion
08025488 t d_print_expr_op
08025500 t d_demangle_callback.constprop.0
0802585c t d_print_subexpr
08025938 t d_maybe_print_fold_expression
08025b8c T __cxa_demangle
08025c50 T __gcclibcxx_demangle_callback
08025c74 T _ZNK10__cxxabiv117__class_type_info11__do_upcastEPKS0_PPv
08025ca8 T _ZNK10__cxxabiv117__class_type_info20__do_find_public_srcEiPKvPKS0_S2_
08025cb4 T _ZN10__cxxabiv117__class_type_infoD1Ev
08025cb4 T _ZN10__cxxabiv117__class_type_infoD2Ev
08025cc8 T _ZN10__cxxabiv117__class_type_infoD0Ev
08025ce4 T _ZNK10__cxxabiv117__class_type_info12__do_dyncastEiNS0_10__sub_kindEPKS0_PKvS3_S5_RNS0_16__dyncast_resultE
08025d28 T _ZNK10__cxxabiv117__class_type_info11__do_upcastEPKS0_PKvRNS0_15__upcast_resultE
08025d44 T _ZNK10__cxxabiv117__class_type_info10__do_catchEPKSt9type_infoPPvj
08025d70 T __cxa_end_cleanup
08025d7c T __cxa_type_match
08025e30 T __cxa_begin_cleanup
08025e94 T __gnu_end_cleanup
08025f04 t _ZN10__cxxabiv1L24__is_gxx_exception_classEPc
08025f40 T __cxa_call_terminate
08025f60 T __cxa_call_unexpected
08026044 T __cxa_get_exception_ptr
08026048 T __cxa_begin_catch
080260c4 T __cxa_end_catch
08026150 T _ZSt18uncaught_exceptionv
08026160 T _ZSt19uncaught_exceptionsv
0802616c T __cxa_get_globals_fast
08026174 T __cxa_get_globals
0802617c t _ZL28read_encoded_value_with_basehjPKhPj
0802623c t _ZL21base_of_encoded_valuehP15_Unwind_Context
08026284 t _ZL17parse_lsda_headerP15_Unwind_ContextPKhP16lsda_header_info
08026318 T __gxx_personality_v0
080267c0 T __cxa_current_exception_type
080267dc T getenv
08026824 T env_foreach
08026850 T pthread_exit
08026898 T pthread_destroyjoin
080268e4 T pthread_completejoin
0802697a T pthread_findjoininfo
0802698c T nxsched_get_files
0802699c T nxsched_add_readytorun
080269e4 T nxsched_remove_readytorun
08026a0c T nxsched_add_prioritized
08026a54 T nxsched_merge_pending
08026aac T nxsched_add_blocked
08026ad4 T nxsched_remove_blocked
08026af0 T nxsched_foreach
08026b24 T sched_idletask
08026b3c T nxsched_self
08026b48 T nxsched_get_stackinfo
08026b8c T nxsched_resume_scheduler
08026b94 T nxsched_process_timer
08026bc4 T nxsem_reset
08026c04 T nxtask_exit
08026c4c T task_getgroup
08026c58 T nxtask_terminate
08026cac T work_queue
08026d08 T work_signal
08026d24 T nxsched_process_roundrobin
08026d5c T nxsig_kill
08026d9e T kill
08026db8 T bchdev_register
08026dec t bch_unlink
08026e1c t bch_ioctl
08026e8c t bch_seek
08026edc t bch_open
08026f08 t bch_write
08026f4e t bch_read
08026f8a t bch_close
08026fce t bch_poll
08026fec T nx_mkfifo
08027020 t pipecommon_pollnotify
08027064 T pipecommon_allocdev
080270b2 T pipecommon_freedev
080270d0 T pipecommon_close
0802717a T pipecommon_open
08027224 T pipecommon_read
080272e8 T pipecommon_write
080273e0 T pipecommon_poll
0802749a T pipecommon_ioctl
0802751c T pipecommon_unlink
08027544 T nx_vsyslog
080275c4 t syslogstream_putc
080275e6 T syslogstream_create
080275fc t emergstream_putc
0802761a T emergstream
08027630 T syslog_putc
0802765c T syslog_force
08027674 T syslog_flush
0802768c t devnull_read
08027690 t devnull_write
08027694 t devnull_poll
080276b0 T devnull_register
080276c8 T bchlib_setup
0802775e T bchlib_teardown
08027790 T bchlib_read
08027854 T bchlib_write
08027930 T bchlib_flushsector
0802794c T bchlib_readsector
0802797a T bchlib_semtake
08027980 T localeconv
08027988 T uname
08027a04 t match_one
08027adc T match
08027b14 T htons
08027b1a T ntohs
08027b20 T dq_addlast
08027b36 T dq_remfirst
08027b52 T printf
08027b76 T asprintf
08027b90 T snprintf
08027bbe T lib_sprintf
08027bd8 T vasprintf
08027c22 T vsnprintf
08027c4c t nulloutstream_putc
08027c54 T lib_nulloutstream
08027c6c T lib_mode2oflags
08027d1e T fdopen
08027d4c T fopen
08027d96 T fclose
08027e5c T fwrite
08027e76 T lib_fwrite
08027f28 T lib_rdflush
08027f82 T fputc
08027fc0 T fputs
0802802a T vfprintf
08028060 t stdoutstream_flush
08028068 t stdoutstream_putc
0802808e T lib_stdoutstream
080280c0 T strtoul
0802817a T lib_checkbase
080281da T lib_isbasedigit
08028226 T memcmp
0802824e T memmove
0802827c T lib_skipspace
08028294 T strcspn
080282b0 T strncmp
080282d0 T strspn
080282ec T gethostname
0802830c T isspace
08028320 T fseek
08028366 T lib_wrflush
08028388 T umm_addregion
08028398 T memalign
080283a8 T umm_heapmember
080283b4 T iob_add_queue
080283e2 T iob_tryadd_queue
08028410 T iob_tryalloc
08028458 T iob_alloc
080284f8 T iob_tryalloc_qentry
08028528 T iob_alloc_qentry
080285a8 t iob_copyin_internal.part.0
08028658 T iob_copyin
0802867e T iob_trycopyin
080286a4 T iob_free_chain
080286b4 T iob_free_queue
080286d8 T iob_stats_onalloc
080286f0 T iob_stats_onfree
08028708 T iob_getuserstats
08028714 T iob_navail
08028738 T iob_qentry_navail
0802875c T mm_memalign
08028804 T mm_heapmember
0802882c T iob_free
08028880 T iob_free_qentry
080288bc T up_reprioritize_rtr
08028930 T _ZNKSt3__112bad_weak_ptr4whatEv
08028938 T _ZNKSt3__119__shared_weak_count13__get_deleterERKSt9type_info
0802893c T _ZNSt3__112bad_weak_ptrD1Ev
0802893c T _ZNSt3__112bad_weak_ptrD2Ev
08028950 T _ZNSt3__112bad_weak_ptrD0Ev
08028964 T _ZNSt3__114__shared_countD1Ev
08028964 T _ZNSt3__114__shared_countD2Ev
08028966 T _ZNSt3__114__shared_countD0Ev
08028974 T _ZNSt3__119__shared_weak_countD1Ev
08028974 T _ZNSt3__119__shared_weak_countD2Ev
08028976 T _ZNSt3__119__shared_weak_countD0Ev
08028984 T _ZNSt3__114__shared_count12__add_sharedEv
08028996 T _ZNSt3__114__shared_count16__release_sharedEv
080289c6 T _ZNSt3__119__shared_weak_count12__add_sharedEv
080289ca T _ZNSt3__119__shared_weak_count10__add_weakEv
080289dc T _ZNSt3__119__shared_weak_count14__release_weakEv
08028a0e T _ZNSt3__119__shared_weak_count16__release_sharedEv
08028a24 T _ZNSt3__119__shared_weak_count4lockEv
08028a5a T _ZNSt3__18__sp_mut4lockEv
08028a7e T _ZNSt3__18__sp_mut6unlockEv
08028a84 T _ZNSt3__112__get_sp_mutEPKv
08028acc T _ZNSt3__117declare_reachableEPv
08028ace T _ZNSt3__119declare_no_pointersEPcj
08028ad0 T _ZNSt3__121undeclare_no_pointersEPcj
08028ad2 T _ZNSt3__118get_pointer_safetyEv
08028ad8 T _ZNSt3__121__undeclare_reachableEPv
08028ada T _ZNSt3__15alignEjjRPvRj
08028b04 t _ZNSt3__112_GLOBAL__N_112throw_helperISt12out_of_rangeEEvRKNS_12basic_stringIcNS_11char_traitsIcEENS_9allocatorIcEEEE
08028b04 t _ZNSt3__112_GLOBAL__N_112throw_helperISt16invalid_argumentEEvRKNS_12basic_stringIcNS_11char_traitsIcEENS_9allocatorIcEEEE
08028b28 t _ZNSt3__111char_traitsIwE6assignEPwjw.isra.0
08028b36 t _ZNSt3__111char_traitsIwE4copyEPwPKwj.isra.0
08028b3e t _ZNSt3__111char_traitsIwE4moveEPwPKwj.isra.0
08028b46 t _ZNSt3__111char_traitsIcE6assignEPcjc.isra.0
08028b54 t _ZNSt3__111char_traitsIcE4copyEPcPKcj.isra.0
08028b5c t _ZNSt3__111char_traitsIcE4moveEPcPKcj.isra.0
08028b64 t _ZNSt3__112_GLOBAL__N_130throw_from_string_out_of_rangeERKNS_12basic_stringIcNS_11char_traitsIcEENS_9allocatorIcEEEE
08028b9c t _ZNSt3__112_GLOBAL__N_129throw_from_string_invalid_argERKNS_12basic_stringIcNS_11char_traitsIcEENS_9allocatorIcEEEE
08028bd4 t _ZNSt3__112_GLOBAL__N_115as_float_helperIdNS_12basic_stringIcNS_11char_traitsIcEENS_9allocatorIcEEEEPFdPKcPPcEEET_RKS7_RKT0_PjT1_
08028bd4 t _ZNSt3__112_GLOBAL__N_115as_float_helperIeNS_12basic_stringIcNS_11char_traitsIcEENS_9allocatorIcEEEEPFePKcPPcEEET_RKS7_RKT0_PjT1_
08028c36 t _ZNSt3__112_GLOBAL__N_115as_float_helperIdNS_12basic_stringIwNS_11char_traitsIwEENS_9allocatorIwEEEEPFdPKwPPwEEET_RKNS2_IcNS3_IcEENS5_IcEEEERKT0_PjT1_
08028c36 t _ZNSt3__112_GLOBAL__N_115as_float_helperIeNS_12basic_stringIwNS_11char_traitsIwEENS_9allocatorIwEEEEPFePKwPPwEEET_RKNS2_IcNS3_IcEENS5_IcEEEERKT0_PjT1_
08028c9a t _ZNSt3__112_GLOBAL__N_117as_integer_helperIlNS_12basic_stringIwNS_11char_traitsIwEENS_9allocatorIwEEEEPFlPKwPPwiEEET_RKNS2_IcNS3_IcEENS5_IcEEEERKT0_PjiT1_.constprop.0
08028cfe t _ZNSt3__112_GLOBAL__N_117as_integer_helperIlNS_12basic_stringIcNS_11char_traitsIcEENS_9allocatorIcEEEEPFlPKcPPciEEET_RKS7_RKT0_PjiT1_.constprop.0
08028d60 t _ZNSt3__112_GLOBAL__N_19as_stringINS_12basic_stringIcNS_11char_traitsIcEENS_9allocatorIcEEEEPFiPcjPKczEdEET_T0_SD_PKNSD_10value_typeET1_.constprop.0
08028dd2 t _ZNKSt3__112_GLOBAL__N_114initial_stringINS_12basic_stringIcNS_11char_traitsIcEENS_9allocatorIcEEEEEclEv.constprop.0
08028de8 t _ZNSt3__112_GLOBAL__N_19as_stringINS_12basic_stringIwNS_11char_traitsIwEENS_9allocatorIwEEEEPFiPwjPKwzEdEET_T0_SD_PKNSD_10value_typeET1_.constprop.0
08028e5a t _ZNKSt3__112_GLOBAL__N_114initial_stringINS_12basic_stringIwNS_11char_traitsIwEENS_9allocatorIwEEEEEclEv.constprop.0
08028e86 T _ZNSt3__14stoiERKNS_12basic_stringIcNS_11char_traitsIcEENS_9allocatorIcEEEEPji
08028eb8 T _ZNSt3__14stoiERKNS_12basic_stringIwNS_11char_traitsIwEENS_9allocatorIwEEEEPji
08028eec T _ZNSt3__14stolERKNS_12basic_stringIcNS_11char_traitsIcEENS_9allocatorIcEEEEPji
08028f20 T _ZNSt3__14stolERKNS_12basic_stringIwNS_11char_traitsIwEENS_9allocatorIwEEEEPji
08028f54 T _ZNSt3__15stoulERKNS_12basic_stringIcNS_11char_traitsIcEENS_9allocatorIcEEEEPji
08028fc4 T _ZNSt3__15stoulERKNS_12basic_stringIwNS_11char_traitsIwEENS_9allocatorIwEEEEPji
08029038 T _ZNSt3__15stollERKNS_12basic_stringIcNS_11char_traitsIcEENS_9allocatorIcEEEEPji
080290b4 T _ZNSt3__15stollERKNS_12basic_stringIwNS_11char_traitsIwEENS_9allocatorIwEEEEPji
08029130 T _ZNSt3__16stoullERKNS_12basic_stringIcNS_11char_traitsIcEENS_9allocatorIcEEEEPji
080291ac T _ZNSt3__16stoullERKNS_12basic_stringIwNS_11char_traitsIwEENS_9allocatorIwEEEEPji
08029228 T _ZNSt3__14stofERKNS_12basic_stringIcNS_11char_traitsIcEENS_9allocatorIcEEEEPj
08029298 T _ZNSt3__14stofERKNS_12basic_stringIwNS_11char_traitsIwEENS_9allocatorIwEEEEPj
08029308 T _ZNSt3__14stodERKNS_12basic_stringIcNS_11char_traitsIcEENS_9allocatorIcEEEEPj
08029344 T _ZNSt3__14stodERKNS_12basic_stringIwNS_11char_traitsIwEENS_9allocatorIwEEEEPj
08029380 T _ZNSt3__15stoldERKNS_12basic_stringIcNS_11char_traitsIcEENS_9allocatorIcEEEEPj
080293b8 T _ZNSt3__15stoldERKNS_12basic_stringIwNS_11char_traitsIwEENS_9allocatorIwEEEEPj
080293f0 T _ZNSt3__19to_stringEf
08029480 T _ZNSt3__19to_stringEd
080294b0 T _ZNSt3__19to_stringEe
080294e0 T _ZNSt3__110to_wstringEf
08029570 T _ZNSt3__110to_wstringEd
080295a0 T _ZNSt3__110to_wstringEe
080295d0 t _ZNSt3__112_GLOBAL__N_111i_to_stringINS_12basic_stringIcNS_11char_traitsIcEENS_9allocatorIcEEEEiEET_T0_
08029634 T _ZNSt3__19to_stringEi
08029640 T _ZNSt3__19to_stringEl
0802964c T _ZNSt3__19to_stringEm
08029668 T _ZNSt3__19to_stringEx
080296e8 T _ZNSt3__19to_stringEy
08029708 T _ZNSt3__19to_stringEj
08029724 t _ZNSt3__112_GLOBAL__N_111i_to_stringINS_12basic_stringIwNS_11char_traitsIwEENS_9allocatorIwEEEEiEET_T0_
08029788 T _ZNSt3__110to_wstringEi
08029794 T _ZNSt3__110to_wstringEl
080297a0 T _ZNSt3__110to_wstringEm
080297bc T _ZNSt3__110to_wstringEx
0802983c T _ZNSt3__110to_wstringEy
0802985c T _ZNSt3__110to_wstringEj
08029878 W _ZNSt3__111char_traitsIcE4findEPKcjRS2_
08029888 W _ZNSt3__111char_traitsIwE4findEPKwjRS2_
08029898 W _ZNKSt3__121__basic_string_commonILb1EE20__throw_length_errorEv
0802989e W _ZNKSt3__121__basic_string_commonILb1EE20__throw_out_of_rangeEv
080298a4 W _ZNKSt3__112basic_stringIcNS_11char_traitsIcEENS_9allocatorIcEEE5rfindEPKcjj
08029916 W _ZNSt3__112basic_stringIcNS_11char_traitsIcEENS_9allocatorIcEEE6__initEPKcjj
08029962 W _ZNKSt3__112basic_stringIcNS_11char_traitsIcEENS_9allocatorIcEEE16find_last_not_ofEPKcjj
0802999c W _ZNSt3__112basic_stringIcNS_11char_traitsIcEENS_9allocatorIcEEED1Ev
0802999c W _ZNSt3__112basic_stringIcNS_11char_traitsIcEENS_9allocatorIcEEED2Ev
080299b6 W _ZNKSt3__112basic_stringIcNS_11char_traitsIcEENS_9allocatorIcEEE17find_first_not_ofEPKcjj
080299f4 W _ZNSt3__112basic_stringIcNS_11char_traitsIcEENS_9allocatorIcEEEaSEc
08029a12 W _ZNSt3__112basic_stringIcNS_11char_traitsIcEENS_9allocatorIcEEE6__initEPKcj
08029a60 W _ZNKSt3__112basic_stringIcNS_11char_traitsIcEENS_9allocatorIcEEE2atEj
08029a82 W _ZNKSt3__112basic_stringIcNS_11char_traitsIcEENS_9allocatorIcEEE13find_first_ofEPKcjj
08029ac0 W _ZNSt3__112basic_stringIcNS_11char_traitsIcEENS_9allocatorIcEEE7reserveEj
08029b84 W _ZNKSt3__112basic_stringIcNS_11char_traitsIcEENS_9allocatorIcEEE4copyEPcjj
08029bba W _ZNSt3__112basic_stringIcNS_11char_traitsIcEENS_9allocatorIcEEEC1ERKS5_jjRKS4_
08029bba W _ZNSt3__112basic_stringIcNS_11char_traitsIcEENS_9allocatorIcEEEC2ERKS5_jjRKS4_
08029bf8 W _ZNKSt3__112basic_stringIcNS_11char_traitsIcEENS_9allocatorIcEEE4findEcj
08029c2e W _ZNSt3__112basic_stringIcNS_11char_traitsIcEENS_9allocatorIcEEE6__initEjc
08029c7c W _ZNKSt3__112basic_stringIcNS_11char_traitsIcEENS_9allocatorIcEEE12find_last_ofEPKcjj
08029cbc W _ZNSt3__112basic_stringIcNS_11char_traitsIcEENS_9allocatorIcEEE9__grow_byEjjjjjj
08029d60 W _ZNSt3__112basic_stringIcNS_11char_traitsIcEENS_9allocatorIcEEE6insertEjjc
08029df8 W _ZNSt3__112basic_stringIcNS_11char_traitsIcEENS_9allocatorIcEEE7replaceEjjjc
08029eb0 W _ZNSt3__112basic_stringIcNS_11char_traitsIcEENS_9allocatorIcEEE21__grow_by_and_replaceEjjjjjjPKc
08029f6c W _ZNSt3__112basic_stringIcNS_11char_traitsIcEENS_9allocatorIcEEE7replaceEjjPKcj
0802a070 W _ZNSt3__112basic_stringIcNS_11char_traitsIcEENS_9allocatorIcEEE7replaceEjjPKc
0802a092 W _ZNSt3__112basic_stringIcNS_11char_traitsIcEENS_9allocatorIcEEE6insertEjPKcj
0802a140 W _ZNSt3__112basic_stringIcNS_11char_traitsIcEENS_9allocatorIcEEE6insertEjPKc
0802a15c W _ZNSt3__112basic_stringIcNS_11char_traitsIcEENS_9allocatorIcEEE6appendEPKcj
0802a1ca W _ZNSt3__112basic_stringIcNS_11char_traitsIcEENS_9allocatorIcEEE9push_backEc
0802a224 W _ZNSt3__112basic_stringIcNS_11char_traitsIcEENS_9allocatorIcEEE6appendEjc
0802a2a2 W _ZNKSt3__112basic_stringIcNS_11char_traitsIcEENS_9allocatorIcEEE5rfindEcj
0802a2d2 W _ZNSt3__112basic_stringIcNS_11char_traitsIcEENS_9allocatorIcEEE6assignEjc
0802a338 W _ZNSt3__112basic_stringIcNS_11char_traitsIcEENS_9allocatorIcEEE5eraseEjj
0802a3ac W _ZNSt3__112basic_stringIcNS_11char_traitsIcEENS_9allocatorIcEEE6appendERKS5_jj
0802a3e2 W _ZNSt3__112basic_stringIcNS_11char_traitsIcEENS_9allocatorIcEEE2atEj
0802a404 W _ZNKSt3__112basic_stringIcNS_11char_traitsIcEENS_9allocatorIcEEE4findEPKcjj
0802a472 W _ZNKSt3__112basic_stringIcNS_11char_traitsIcEENS_9allocatorIcEEE7compareEjjRKS5_jj
0802a4e4 W _ZNKSt3__112basic_stringIcNS_11char_traitsIcEENS_9allocatorIcEEE7compareEjjPKcj
0802a53e W _ZNKSt3__112basic_stringIcNS_11char_traitsIcEENS_9allocatorIcEEE7compareEPKc
0802a55e W _ZNKSt3__112basic_stringIcNS_11char_traitsIcEENS_9allocatorIcEEE7compareEjjPKc
0802a580 W _ZNSt3__112basic_stringIcNS_11char_traitsIcEENS_9allocatorIcEEEaSERKS5_
0802a61c W _ZNSt3__112basic_stringIcNS_11char_traitsIcEENS_9allocatorIcEEE6appendEPKc
0802a634 W _ZNSt3__112basic_stringIcNS_11char_traitsIcEENS_9allocatorIcEEE7replaceEjjRKS5_jj
0802a66e W _ZNSt3__112basic_stringIcNS_11char_traitsIcEENS_9allocatorIcEEE6insertENS_11__wrap_iterIPKcEEc
0802a6e2 W _ZNSt3__112basic_stringIcNS_11char_traitsIcEENS_9allocatorIcEEE6resizeEjc
0802a718 W _ZNSt3__112basic_stringIcNS_11char_traitsIcEENS_9allocatorIcEEE6insertEjRKS5_jj
0802a74e W _ZNKSt3__112basic_stringIwNS_11char_traitsIwEENS_9allocatorIwEEE5rfindEPKwjj
0802a7d0 W _ZNSt3__112basic_stringIwNS_11char_traitsIwEENS_9allocatorIwEEE6__initEPKwjj
0802a824 W _ZNKSt3__112basic_stringIwNS_11char_traitsIwEENS_9allocatorIwEEE16find_last_not_ofEPKwjj
0802a862 W _ZNSt3__112basic_stringIwNS_11char_traitsIwEENS_9allocatorIwEEED1Ev
0802a862 W _ZNSt3__112basic_stringIwNS_11char_traitsIwEENS_9allocatorIwEEED2Ev
0802a87e W _ZNKSt3__112basic_stringIwNS_11char_traitsIwEENS_9allocatorIwEEE17find_first_not_ofEPKwjj
0802a8c2 W _ZNSt3__112basic_stringIwNS_11char_traitsIwEENS_9allocatorIwEEEaSEw
0802a8e0 W _ZNSt3__112basic_stringIwNS_11char_traitsIwEENS_9allocatorIwEEE6__initEPKwj
0802a934 W _ZNKSt3__112basic_stringIwNS_11char_traitsIwEENS_9allocatorIwEEE2atEj
0802a958 W _ZNKSt3__112basic_stringIwNS_11char_traitsIwEENS_9allocatorIwEEE13find_first_ofEPKwjj
0802a9a4 W _ZNSt3__112basic_stringIwNS_11char_traitsIwEENS_9allocatorIwEEE7reserveEj
0802aa80 W _ZNKSt3__112basic_stringIwNS_11char_traitsIwEENS_9allocatorIwEEE4copyEPwjj
0802aab8 W _ZNSt3__112basic_stringIwNS_11char_traitsIwEENS_9allocatorIwEEEC1ERKS5_jjRKS4_
0802aab8 W _ZNSt3__112basic_stringIwNS_11char_traitsIwEENS_9allocatorIwEEEC2ERKS5_jjRKS4_
0802aaf8 W _ZNKSt3__112basic_stringIwNS_11char_traitsIwEENS_9allocatorIwEEE4findEwj
0802ab30 W _ZNSt3__112basic_stringIwNS_11char_traitsIwEENS_9allocatorIwEEE6__initEjw
0802ab84 W _ZNKSt3__112basic_stringIwNS_11char_traitsIwEENS_9allocatorIwEEE12find_last_ofEPKwjj
0802abc8 W _ZNSt3__112basic_stringIwNS_11char_traitsIwEENS_9allocatorIwEEE9__grow_byEjjjjjj
0802ac80 W _ZNSt3__112basic_stringIwNS_11char_traitsIwEENS_9allocatorIwEEE6insertEjjw
0802ad22 W _ZNSt3__112basic_stringIwNS_11char_traitsIwEENS_9allocatorIwEEE7replaceEjjjw
0802addc W _ZNSt3__112basic_stringIwNS_11char_traitsIwEENS_9allocatorIwEEE21__grow_by_and_replaceEjjjjjjPKw
0802aea8 W _ZNSt3__112basic_stringIwNS_11char_traitsIwEENS_9allocatorIwEEE7replaceEjjPKwj
0802afb6 W _ZNSt3__112basic_stringIwNS_11char_traitsIwEENS_9allocatorIwEEE7replaceEjjPKw
0802afd8 W _ZNSt3__112basic_stringIwNS_11char_traitsIwEENS_9allocatorIwEEE6insertEjPKwj
0802b08a W _ZNSt3__112basic_stringIwNS_11char_traitsIwEENS_9allocatorIwEEE6insertEjPKw
0802b0a6 W _ZNSt3__112basic_stringIwNS_11char_traitsIwEENS_9allocatorIwEEE6appendEPKwj
0802b118 W _ZNSt3__112basic_stringIwNS_11char_traitsIwEENS_9allocatorIwEEE9push_backEw
0802b176 W _ZNSt3__112basic_stringIwNS_11char_traitsIwEENS_9allocatorIwEEE6appendEjw
0802b1f4 W _ZNKSt3__112basic_stringIwNS_11char_traitsIwEENS_9allocatorIwEEE5rfindEwj
0802b228 W _ZNSt3__112basic_stringIwNS_11char_traitsIwEENS_9allocatorIwEEE6assignEjw
0802b290 W _ZNSt3__112basic_stringIwNS_11char_traitsIwEENS_9allocatorIwEEE5eraseEjj
0802b30e W _ZNSt3__112basic_stringIwNS_11char_traitsIwEENS_9allocatorIwEEE6appendERKS5_jj
0802b346 W _ZNSt3__112basic_stringIwNS_11char_traitsIwEENS_9allocatorIwEEE2atEj
0802b36a W _ZNKSt3__112basic_stringIwNS_11char_traitsIwEENS_9allocatorIwEEE4findEPKwjj
0802b3f6 W _ZNKSt3__112basic_stringIwNS_11char_traitsIwEENS_9allocatorIwEEE7compareEjjRKS5_jj
0802b46a W _ZNKSt3__112basic_stringIwNS_11char_traitsIwEENS_9allocatorIwEEE7compareEjjPKwj
0802b4c6 W _ZNKSt3__112basic_stringIwNS_11char_traitsIwEENS_9allocatorIwEEE7compareEPKw
0802b4e6 W _ZNKSt3__112basic_stringIwNS_11char_traitsIwEENS_9allocatorIwEEE7compareEjjPKw
0802b508 W _ZNSt3__112basic_stringIwNS_11char_traitsIwEENS_9allocatorIwEEEaSERKS5_
0802b5a6 W _ZNSt3__112basic_stringIwNS_11char_traitsIwEENS_9allocatorIwEEE6appendEPKw
0802b5be W _ZNSt3__112basic_stringIwNS_11char_traitsIwEENS_9allocatorIwEEE7replaceEjjRKS5_jj
0802b5fa W _ZNSt3__112basic_stringIwNS_11char_traitsIwEENS_9allocatorIwEEE6insertENS_11__wrap_iterIPKwEEw
0802b672 W _ZNSt3__112basic_stringIwNS_11char_traitsIwEENS_9allocatorIwEEE6resizeEjw
0802b6ac W _ZNSt3__112basic_stringIwNS_11char_traitsIwEENS_9allocatorIwEEE6insertEjRKS5_jj
0802b6e4 W _ZNSt3__1plIcNS_11char_traitsIcEENS_9allocatorIcEEEENS_12basic_stringIT_T0_T1_EEPKS6_RKS9_
0802b726 W _ZNSt3__112basic_stringIcNS_11char_traitsIcEENS_9allocatorIcEEE25__init_copy_ctor_externalEPKcj
0802b768 W _ZNSt3__112basic_stringIcNS_11char_traitsIcEENS_9allocatorIcEEEC1ERKS5_
0802b768 W _ZNSt3__112basic_stringIcNS_11char_traitsIcEENS_9allocatorIcEEEC2ERKS5_
0802b786 W _ZNSt3__112basic_stringIcNS_11char_traitsIcEENS_9allocatorIcEEEC1ERKS5_RKS4_
0802b786 W _ZNSt3__112basic_stringIcNS_11char_traitsIcEENS_9allocatorIcEEEC2ERKS5_RKS4_
0802b7a4 W _ZNSt3__112basic_stringIcNS_11char_traitsIcEENS_9allocatorIcEEE17__assign_externalEPKcj
0802b802 W _ZNSt3__112basic_stringIcNS_11char_traitsIcEENS_9allocatorIcEEE6assignEPKcj
0802b80a W _ZNSt3__112basic_stringIcNS_11char_traitsIcEENS_9allocatorIcEEE6assignERKS5_jj
0802b840 W _ZNSt3__112basic_stringIcNS_11char_traitsIcEENS_9allocatorIcEEE6assignEPKc
0802b858 W _ZNSt3__112basic_stringIwNS_11char_traitsIwEENS_9allocatorIwEEE25__init_copy_ctor_externalEPKwj
0802b89c W _ZNSt3__112basic_stringIwNS_11char_traitsIwEENS_9allocatorIwEEEC1ERKS5_
0802b89c W _ZNSt3__112basic_stringIwNS_11char_traitsIwEENS_9allocatorIwEEEC2ERKS5_
0802b8ba W _ZNSt3__112basic_stringIwNS_11char_traitsIwEENS_9allocatorIwEEEC1ERKS5_RKS4_
0802b8ba W _ZNSt3__112basic_stringIwNS_11char_traitsIwEENS_9allocatorIwEEEC2ERKS5_RKS4_
0802b8d8 W _ZNSt3__112basic_stringIwNS_11char_traitsIwEENS_9allocatorIwEEE17__assign_externalEPKwj
0802b938 W _ZNSt3__112basic_stringIwNS_11char_traitsIwEENS_9allocatorIwEEE6assignEPKwj
0802b940 W _ZNSt3__112basic_stringIwNS_11char_traitsIwEENS_9allocatorIwEEE6assignERKS5_jj
0802b978 W _ZNSt3__112basic_stringIwNS_11char_traitsIwEENS_9allocatorIwEEE6assignEPKw
0802b990 W _ZNSt3__112basic_stringIcNS_11char_traitsIcEENS_9allocatorIcEEE6__initIPcEENS_9_MetaBaseIXsrNS_27__is_cpp17_forward_iteratorIT_EE5valueEE13_EnableIfImplIvEESA_SA_
0802b9e8 W _ZNSt3__112basic_stringIwNS_11char_traitsIwEENS_9allocatorIwEEE6__initIPcEENS_9_MetaBaseIXsrNS_27__is_cpp17_forward_iteratorIT_EE5valueEE13_EnableIfImplIvEESA_SA_
0802ba48 T _ZNSt3__16__itoa8__u32toaEmPc
0802bbfc T _ZNSt3__16__itoa8__u64toaEyPc
0802c020 W _ZNSt3__120__vector_base_commonILb1EEC1Ev
0802c020 W _ZNSt3__120__vector_base_commonILb1EEC2Ev
0802c022 W _ZNKSt3__120__vector_base_commonILb1EE20__throw_length_errorEv
0802c028 W _ZNKSt3__120__vector_base_commonILb1EE20__throw_out_of_rangeEv
0802c02e T psock_recvfrom
0802c06c T nx_recvfrom
0802c090 T recvfrom
0802c0c6 T psock_send
0802c0f0 T nx_send
0802c10a T send
0802c136 T psock_socket
0802c17e T psock_close
0802c1b2 T psock_recvmsg
0802c1e8 T nx_recvmsg
0802c1fe T recvmsg
0802c22a T psock_sendmsg
0802c252 T nx_sendmsg
0802c268 T sendmsg
0802c294 T psock_dup2
0802c30c T net_sockif
0802c330 T psock_poll
0802c336 T psock_vfcntl
0802c3c0 T psock_fcntl
0802c3dc t inet_sockcaps
0802c3ea t inet_recvmsg
0802c436 t inet_poll
0802c45c t inet_accept
0802c4b4 t inet_connect
0802c504 t inet_listen
0802c52c t inet_getpeername
0802c53c t inet_getsockname
0802c54c T inet_close
0802c590 t inet_send
0802c5c6 t inet_setup
0802c60e t inet_bind
0802c63a t inet_addref
0802c658 t inet_sendmsg
0802c744 T inet_sockif
0802c780 T ipv4_getsockname
0802c80e T ipv4_getpeername
0802c862 t icmp_sockcaps
0802c866 t icmp_addref
0802c870 t icmp_connect
0802c876 t icmp_accept
0802c87c t icmp_bind
0802c882 t icmp_getsockname
0802c888 t icmp_listen
0802c88e t icmp_close
0802c8b8 t icmp_netpoll
0802c8c2 t icmp_setup
0802c8ec t icmp_getpeername
0802c8f4 t sendto_eventhandler
0802c9c4 T icmp_sendmsg
0802cb14 t recvfrom_eventhandler
0802cb9a T icmp_recvmsg
0802cd08 t icmp_poll_eventhandler
0802cd48 T icmp_pollsetup
0802cdc8 T icmp_pollteardown
0802cde8 t pkt_sockcaps
0802cdec t pkt_addref
0802cdf6 t pkt_connect
0802cdfc t pkt_accept
0802ce02 t pkt_getsockname
0802ce08 t pkt_listen
0802ce0e t pkt_poll_local
0802ce14 t pkt_close
0802ce40 t pkt_bind
0802ce8e t pkt_setup
0802ceb4 t pkt_getpeername
0802cebc t psock_send_eventhandler
0802cefc T pkt_sendmsg
0802cfd4 t pkt_recvfrom_eventhandler
0802d030 T pkt_recvmsg
0802d0d4 t psock_teardown_callbacks
0802d0fe t psock_connect_eventhandler
0802d160 T psock_tcp_connect
0802d20c t accept_eventhandler
0802d250 T psock_tcp_accept
0802d2f0 t tcp_recvhandler
0802d3b6 t tcp_ackhandler
0802d3e4 T psock_tcp_recvfrom
0802d558 t tcpsend_eventhandler
0802d610 T psock_tcp_send
0802d6fc T psock_tcp_cansend
0802d700 t udp_eventhandler
0802d7aa T psock_udp_recvfrom
0802d904 t sendto_eventhandler
0802d94c T psock_udp_sendto
0802da34 T psock_udp_cansend
0802da38 t netdev_ifr_dev
0802da40 T netdev_ifup
0802da5c T netdev_ifdown
0802da88 T psock_vioctl
0802dd20 T psock_ioctl
0802dd3a T netdev_ipv4_txnotify
0802dd4e T netdev_txnotify_dev
0802dd58 T netdev_findbyname
0802dd88 T netdev_findbyindex
0802ddcc T netdev_nextindex
0802de04 T netdev_count
0802de24 t ifconf_ipv4_callback
0802de6c T netdev_ipv4_ifconf
0802de8c T pkt_find_device
0802de98 t local_sockcaps
0802de9c t local_addref
0802dea6 t local_close
0802ded2 t local_poll
0802dedc t local_getsockname
0802df3a t local_getpeername
0802df3c t local_bind
0802df5e t local_connect
0802df98 t local_setup
0802dfd0 T local_accept_pollnotify
0802e00c T local_pollsetup
0802e156 T local_pollteardown
0802e20c T local_sendmsg
0802e2dc T psock_local_connect
0802e450 T local_accept
0802e554 t tcp_close_eventhandler
0802e592 T tcp_close
0802e638 t tcp_poll_eventhandler
0802e6a0 T tcp_pollsetup
0802e770 T tcp_pollteardown
0802e798 T udp_find_laddr_device
0802e7a4 T udp_find_raddr_device
0802e7c8 T udp_close
0802e7e4 t udp_poll_eventhandler
0802e830 T udp_pollsetup
0802e8e4 T udp_pollteardown
0802e908 T devif_send
0802e918 T devif_pkt_send
0802e92c t netprocfs_rewinddir
0802e934 t netprocfs_stat
0802e994 t netprocfs_closedir
0802e9a6 t netprocfs_close
0802e9b6 t netprocfs_readdir
0802ea14 t netprocfs_open
0802ea64 t netprocfs_opendir
0802eab8 t netprocfs_dup
0802eadc t netprocfs_read
0802eafc T netprocfs_read_linegen
0802eb88 t netprocfs_inet4addresses
0802ebec t netprocfs_linklayer
0802ec68 T netprocfs_read_devstats
0802ec80 T icmp_chksum
0802ec98 T local_release
0802ece0 T psock_local_bind
0802ed32 t psock_fifo_read
0802ed64 T local_recvmsg
0802eecc t local_fifo_write
0802eef4 T local_send_packet
0802ef6c T local_fifo_read
0802efa6 T local_sync
0802f000 T local_getaddr
0802f03e T file_seek
0802f07e T nx_seek
0802f09c T lseek
0802f0b8 T file_poll
0802f11e t poll_fdsetup
0802f13c T nx_poll
0802f2e0 T poll
0802f2fc T open_blockdriver
0802f346 T close_blockdriver
0802f378 T mtd_proxy
0802f420 t read_uleb128
0802f444 t read_sleb128
0802f47c t base_of_encoded_value
0802f4c4 t read_encoded_value_with_base
0802f554 t read_encoded_value
0802f574 t parse_lsda_header
0802f5e0 t _Unwind_SetGR
0802f5f8 t _Unwind_GetGR.constprop.0
0802f614 T __gcc_personality_v0
0802f6f4 T pthread_mutex_trylock
0802f740 T pthread_mutex_unlock
0802f77c t pthread_mutex_add
0802f79c T pthread_mutex_take
0802f7dc T pthread_mutex_trytake
0802f810 T pthread_mutex_give
0802f858 T nxsched_get_streams
0802f868 T sched_yield
0802f87c T nxsem_tickwait
0802f8d8 T nxsem_tickwait_uninterruptible
0802f8f0 T nxsched_set_priority
0802f974 t ftl_open
0802f980 t ftl_read
0802f9a0 t ftl_geometry
0802f9c0 t ftl_ioctl
0802f9e4 t ftl_unlink
0802fa02 t ftl_close
0802fa26 t ftl_write
0802fbac T ftl_initialize_by_path
0802fc10 T ftl_initialize
0802fc40 T basename
0802fc8c T inet_ntoa
0802fcbc T ether_ntoa
0802fcec T pthread_mutex_lock
0802fcf2 T fprintf
0802fd0c T strtol
0802fd80 T strtoll
0802fe16 T strtoull
0802ff28 T strtod
08030114 T strtof
080302c0 T strtold
080304ac T memchr
080304cc T strrchr
080304f0 T wcslen
08030502 T wmemchr
08030520 T wmemcmp
08030548 T wmemcpy
0803054e T wmemmove
08030554 T wmemset
08030564 T wcstol
08030568 T wcstoll
0803056c T wcstoul
08030570 T wcstoull
08030574 T wcstold
08030578 T wcstof
0803057c T wcstod
08030580 T swprintf
080305ae T isdigit
080305ba T iob_copyout
08030610 T iob_peek_queue
08030618 T iob_remove_queue
08030632 T iob_trimhead_queue
08030648 T iob_trimhead
0803068a T register_blockdriver
0803082c T __aeabi_frsub
08030834 T __aeabi_fsub
08030834 T __subsf3
08030838 T __addsf3
08030838 T __aeabi_fadd
08030998 T __aeabi_ui2f
08030998 T __floatunsisf
080309a0 T __aeabi_i2f
080309a0 T __floatsisf
080309bc T __aeabi_ul2f
080309bc T __floatundisf
080309cc T __aeabi_l2f
080309cc T __floatdisf
08030a48 T __aeabi_fmul
08030a48 T __mulsf3
08030bb0 T __aeabi_fdiv
08030bb0 T __divsf3
08030ce8 T __gesf2
08030ce8 T __gtsf2
08030cf0 T __lesf2
08030cf0 T __ltsf2
08030cf8 T __cmpsf2
08030cf8 T __eqsf2
08030cf8 T __nesf2
08030d58 T __aeabi_cfrcmple
08030d60 T __aeabi_cfcmpeq
08030d60 T __aeabi_cfcmple
08030d70 T __aeabi_fcmpeq
08030d84 T __aeabi_fcmplt
08030d98 T __aeabi_fcmple
08030dac T __aeabi_fcmpge
08030dc0 T __aeabi_fcmpgt
08030dd4 T pthread_mutex_timedlock
08030e20 T g_idle_topstack
08030e24 T g_gpiobase
08030e6c t g_uart_devs
08030e84 t g_uart_ops
08030f96 t __FUNCTION__.5
08030fa5 t __FUNCTION__.4
08030fb6 t __FUNCTION__.3
08030fc3 t __FUNCTION__.2
08030fd4 t __FUNCTION__.1
08030fe3 t __FUNCTION__.0
080310da t __FUNCTION__.0
08031149 t __FUNCTION__.0
08031320 t g_idlename
0803132c T g_tasklisttable
080313b3 t __FUNCTION__.0
080313c6 t g_noname
080313dc t g_userled_lower
0803141c t g_serialops
0803143c t g_syslog_console_channel
080314a9 t __FUNCTION__.0
080314bc t userled_fops
080314dc t g_default_channel
080314ec t g_syscrlf
080314f6 t g_nullstring
08031500 T g_dtoa_round
08031580 T g_dtoa_scale_down
080315c8 T g_dtoa_scale_up
08031610 t g_baud_table
080317b8 t g_mon_lengths
08031818 t g_wildabbr
0803181c t g_year_lengths
08031824 t zttinfo.0
08031840 t CSWTCH.20
08031845 t CSWTCH.21
0803184c t g_sp1iops
08031870 t stm32_i2c1_config
0803188c t stm32_i2c_ops
08031a18 t __FUNCTION__.0
08031a25 t __FUNCTION__.3
08031a2f t __FUNCTION__.1
08031a3f t __FUNCTION__.2
08031a4c t g_devops
08031a68 t g_epops
08031ad0 t __FUNCTION__.0
08031ae8 t g_rngops
08031bf0 V _ZTVN8nlohmann6detail21output_string_adapterIcNSt3__112basic_stringIcNS2_11char_traitsIcEENS2_9allocatorIcEEEEEE
08031c08 V _ZTVNSt3__120__shared_ptr_emplaceIN8nlohmann6detail21output_string_adapterIcNS_12basic_stringIcNS_11char_traitsIcEENS_9allocatorIcEEEEEENS7_ISA_EEEE
08031c24 V _ZZN8nlohmann6detail10serializerINS_10basic_jsonINSt3__13mapENS3_6vectorENS3_12basic_stringIcNS3_11char_traitsIcEENS3_9allocatorIcEEEEbxydS9_NS_14adl_serializerENS5_IhNS9_IhEEEEEEE6decodeERhRmhE5utf8d
08031db4 V _ZZN8nlohmann6detail10serializerINS_10basic_jsonINSt3__13mapENS3_6vectorENS3_12basic_stringIcNS3_11char_traitsIcEENS3_9allocatorIcEEEEbxydS9_NS_14adl_serializerENS5_IhNS9_IhEEEEEEE12dump_integerIyLi0EEEvT_E12digits_to_99
08031e7c V _ZZN8nlohmann6detail10serializerINS_10basic_jsonINSt3__13mapENS3_6vectorENS3_12basic_stringIcNS3_11char_traitsIcEENS3_9allocatorIcEEEEbxydS9_NS_14adl_serializerENS5_IhNS9_IhEEEEEEE12dump_integerIxLi0EEEvT_E12digits_to_99
08031f44 V _ZZN8nlohmann6detail10serializerINS_10basic_jsonINSt3__13mapENS3_6vectorENS3_12basic_stringIcNS3_11char_traitsIcEENS3_9allocatorIcEEEEbxydS9_NS_14adl_serializerENS5_IhNS9_IhEEEEEEE12dump_integerIhLi0EEEvT_E12digits_to_99
08032010 V _ZZN8nlohmann6detail9dtoa_impl36get_cached_power_for_binary_exponentEiE13kCachedPowers
08032506 t g_broadcast_ethaddr
08032580 t g_bdfsmap
08032590 t g_mdfsmap
080325a0 t g_nonbdfsmap
0803260c t g_base_entries
080326a8 T procfs_operations
080328fc t g_nodeinfo
08032918 t g_level0info
08032928 t g_groupinfo
08032934 t g_level0node
08032940 t g_ttypenames
08032950 t g_statenames
08032974 t g_policy
08032984 t g_groupenv
08032990 t g_groupfd
0803299c t g_groupstatus
080329a8 t g_group
080329b4 t g_stack
080329c0 t g_cmdline
080329cc t g_status
080329d8 T proc_operations
08032a08 T uptime_operations
08032a8c T meminfo_operations
08032b6c t g_iob_user_names
08032b84 T iobinfo_operations
08032bc0 T version_operations
08032c00 T littlefs_operations
08032d94 t defaults.0
08032da0 t rtable.0
08032de0 t g_sock_fileops
08032ec4 t CSWTCH.5
08032ed0 t labels.0
08032ed8 T mount_procfsoperations
08032f10 t g_ledcfg
08032f34 T _ZTISt9bad_alloc
08032f40 T _ZTSSt9bad_alloc
08032f50 T _ZTVSt9bad_alloc
08032f88 T _ZTIN10__cxxabiv115__forced_unwindE
08032f90 T _ZTIN10__cxxabiv119__foreign_exceptionE
08032f98 T _ZTISt13bad_exception
08032fa4 T _ZTISt9exception
08032fac T _ZTSN10__cxxabiv115__forced_unwindE
08032fcc T _ZTSN10__cxxabiv119__foreign_exceptionE
08032ff0 T _ZTSSt13bad_exception
08033004 T _ZTSSt9exception
08033014 T _ZTVN10__cxxabiv115__forced_unwindE
08033028 T _ZTVN10__cxxabiv119__foreign_exceptionE
0803303c T _ZTVSt13bad_exception
08033050 T _ZTVSt9exception
08033064 T _ZSt7nothrow
080330a4 T _ZTIN10__cxxabiv120__si_class_type_infoE
080330b0 T _ZTSN10__cxxabiv120__si_class_type_infoE
080330d8 T _ZTVN10__cxxabiv120__si_class_type_infoE
08033104 T _ZTISt9type_info
0803310c T _ZTSSt9type_info
0803311c T _ZTVSt9type_info
08033a6c t cplus_demangle_builtin_types
08033d14 t cplus_demangle_operators
08034174 t standard_subs
08034238 T _ZTIN10__cxxabiv117__class_type_infoE
08034244 T _ZTSN10__cxxabiv117__class_type_infoE
08034268 T _ZTVN10__cxxabiv117__class_type_infoE
08034294 T bch_fops
080342b4 t fifo_fops
08034318 t g_priority_str
08034344 t devnull_fops
080343a4 T _global_impure_ptr
080343b8 T _ZTVNSt3__112bad_weak_ptrE
080343cc T _ZTVNSt3__114__shared_countE
080343e0 T _ZTVNSt3__119__shared_weak_countE
080343fc T _ZNSt3__113allocator_argE
0803446c V _ZNSt3__112basic_stringIwNS_11char_traitsIwEENS_9allocatorIwEEE4nposE
08034470 V _ZNSt3__112basic_stringIcNS_11char_traitsIcEENS_9allocatorIcEEE4nposE
08034478 t _ZNSt3__16__itoaL10__pow10_32E
080344a0 t _ZNSt3__16__itoaL10__pow10_64E
08034540 t _ZNSt3__16__itoaL10cDigitsLutE
08034608 t g_inet_sockif
0803463c T g_icmp_sockif
08034670 T g_pkt_sockif
080346ac T g_local_sockif
080346e8 T net_procfsoperations
08034784 t g_netstat_linegen
0803478c t g_preamble
080347b4 t g_bops
080347fa A _etext
080347fc A _sinit
08034800 A _einit
08034db0 A __exidx_start
080373e0 A _eronly
080373e0 A __exidx_end
20000000 A _sdata
20000000 d g_usart1priv
2000006c d g_usart3priv
200000d8 d g_usart2priv
20000144 D g_syslog_channel
20000148 D g_syslog_mask
2000014c D tzname
20000154 d g_gmt_sem
20000156 d g_lcl_sem
20000158 d g_spi1dev
20000174 d stm32_i2c1_priv
200001a0 d g_holder
200001a2 d g_devno_sem
200001a4 d g_sock_inode
200001bc D _ZN10__cxxabiv120__unexpected_handlerE
200001c0 D _ZN10__cxxabiv119__terminate_handlerE
200001c4 d g_c_lconv
20000200 D _impure_ptr
20000208 d _ZL11impure_data
20000630 d _ZZNSt3__112__get_sp_mutEPKvE4muts
20000670 d _ZNSt3__1L8mut_backE
20000730 d g_devno_sem
20000734 A _edata
20000734 A _sbss
20000734 b g_usart3txbuffer
20000834 b g_usart3rxbuffer
20000934 b g_usart2txbuffer
200009b4 b g_usart2rxbuffer
20000a34 b g_usart1txbuffer
20000b34 b g_usart1rxbuffer
20000c34 B g_current_regs
20000c38 b initialized.0
20000c3c B g_basetime
20000c44 B g_system_timer
20000c48 B g_nx_initstate
20000c4c B g_readytorun
20000c54 B g_pendingtasks
20000c5c B g_waitingforsemaphore
20000c64 B g_waitingforsignal
20000c6c B g_waitingformqnotfull
20000c74 B g_waitingformqnotempty
20000c7c B g_inactivetasks
20000c84 B g_lastpid
20000c88 B g_pidhash
20000d08 b g_idletcb
20000dfc b g_idleargv
20000e04 B g_running_tasks
20000e08 B g_hpwork
20000e14 B g_irqvector
20001124 B g_sigfreeaction
2000112c B g_sigpendingaction
20001134 B g_sigpendingirqaction
2000113c B g_sigpendingsignal
20001144 B g_sigpendingirqsignal
2000114c B g_wdactivelist
20001154 b g_lednum
20001158 b g_pcf8563
2000115c B g_rtc_enabled
20001160 b g_syslog_dev
2000117c b inited.0
20001180 b lclptr
20001184 b g_gmt_isset
20001188 b gmtptr
2000118c b g_lcl_isset
20001190 b g_lcl_tzname
20001290 b g_tm
200012bc b g_umm_procfs.0
200012cc B g_mmheap
200012d0 b initialized.0
200012d4 B g_iob_freelist
200012d8 B g_iob_committed
200012dc B g_iob_sem
200012e0 B g_iob_freeqlist
200012e4 b g_iob_qpool
200013a4 B g_iob_qcommitted
200013a8 B g_qentry_sem
200013ac b g_iob_pool
200026cc b s_last_regs
20002718 b g_otgfsdev
20002858 b g_stm32ethmac
200048c4 b g_rngdev
200048d8 B g_devset
200048dc B g_devfreed
200048e0 B g_netdevices
200048e4 b g_arptable
200049e4 b g_free_pkt_connections
200049ec b g_active_pkt_connections
200049f4 b g_free_sem
200049f8 b g_pkt_connections
20004a10 B g_local_listeners
20004a18 b g_tcp_connections
20004d98 b g_last_tcp_port.0
20004d9c b g_free_tcp_connections
20004da4 b g_active_tcp_connections
20004dac b g_tcpsequence
20004db0 b tcp_listenports
20004e00 B g_udp_connections
20004fa0 b g_last_udp_port.0
20004fa4 b g_free_udp_connections
20004fac b g_active_udp_connections
20004fb4 b g_free_sem
20004fb8 b g_cbfreelist
20004fbc b g_cbprealloc
200050fc b g_netlock
20005100 b g_count
20005104 b g_free_icmp_connections
2000510c b g_active_icmp_connections
20005114 b g_free_sem
20005118 b g_icmp_connections
200051b8 B g_ipid
200051ba b g_inode_sem
200051c0 B g_root_inode
200051c4 b g_devno
200051c8 b g_procfs_entries
200051cc b g_procfs_entrycount
200051d0 B g_procfs_meminfo
200051d4 b _ZN12_GLOBAL__N_114emergency_poolE
200051e4 b _ZN12_GLOBAL__N_113__new_handlerE
200051e8 b _ZZN9__gnu_cxx27__verbose_terminate_handlerEvE11terminating
200051ec b _ZL10eh_globals
200051f8 B g_hostname
2000521c B g_iobuserstats
2000524c b g_next_instance_id.0
20005250 b g_devno
20005254 b g_retchar
20005256 b buffer.0
20005268 b buffer.0
2000527c A _ebss
